ARM GAS  /tmp/ccDCAHOp.s 			page 1


   1              		.cpu cortex-m4
   2              		.eabi_attribute 27, 1
   3              		.eabi_attribute 28, 1
   4              		.eabi_attribute 20, 1
   5              		.eabi_attribute 21, 1
   6              		.eabi_attribute 23, 3
   7              		.eabi_attribute 24, 1
   8              		.eabi_attribute 25, 1
   9              		.eabi_attribute 26, 1
  10              		.eabi_attribute 30, 1
  11              		.eabi_attribute 34, 1
  12              		.eabi_attribute 18, 4
  13              		.file	"stm32f4xx_ll_sdmmc.c"
  14              		.text
  15              	.Ltext0:
  16              		.cfi_sections	.debug_frame
  17              		.section	.text.SDMMC_GetCmdError,"ax",%progbits
  18              		.align	1
  19              		.arch armv7e-m
  20              		.syntax unified
  21              		.thumb
  22              		.thumb_func
  23              		.fpu fpv4-sp-d16
  25              	SDMMC_GetCmdError:
  26              	.LVL0:
  27              	.LFB164:
  28              		.file 1 "Drivers/STM32F4xx_HAL_Driver/Src/stm32f4xx_ll_sdmmc.c"
   1:Drivers/STM32F4xx_HAL_Driver/Src/stm32f4xx_ll_sdmmc.c **** /**
   2:Drivers/STM32F4xx_HAL_Driver/Src/stm32f4xx_ll_sdmmc.c ****   ******************************************************************************
   3:Drivers/STM32F4xx_HAL_Driver/Src/stm32f4xx_ll_sdmmc.c ****   * @file    stm32f4xx_ll_sdmmc.c
   4:Drivers/STM32F4xx_HAL_Driver/Src/stm32f4xx_ll_sdmmc.c ****   * @author  MCD Application Team
   5:Drivers/STM32F4xx_HAL_Driver/Src/stm32f4xx_ll_sdmmc.c ****   * @brief   SDMMC Low Layer HAL module driver.
   6:Drivers/STM32F4xx_HAL_Driver/Src/stm32f4xx_ll_sdmmc.c ****   *    
   7:Drivers/STM32F4xx_HAL_Driver/Src/stm32f4xx_ll_sdmmc.c ****   *          This file provides firmware functions to manage the following 
   8:Drivers/STM32F4xx_HAL_Driver/Src/stm32f4xx_ll_sdmmc.c ****   *          functionalities of the SDMMC peripheral:
   9:Drivers/STM32F4xx_HAL_Driver/Src/stm32f4xx_ll_sdmmc.c ****   *           + Initialization/de-initialization functions
  10:Drivers/STM32F4xx_HAL_Driver/Src/stm32f4xx_ll_sdmmc.c ****   *           + I/O operation functions
  11:Drivers/STM32F4xx_HAL_Driver/Src/stm32f4xx_ll_sdmmc.c ****   *           + Peripheral Control functions 
  12:Drivers/STM32F4xx_HAL_Driver/Src/stm32f4xx_ll_sdmmc.c ****   *           + Peripheral State functions
  13:Drivers/STM32F4xx_HAL_Driver/Src/stm32f4xx_ll_sdmmc.c ****   *         
  14:Drivers/STM32F4xx_HAL_Driver/Src/stm32f4xx_ll_sdmmc.c ****   @verbatim
  15:Drivers/STM32F4xx_HAL_Driver/Src/stm32f4xx_ll_sdmmc.c ****   ==============================================================================
  16:Drivers/STM32F4xx_HAL_Driver/Src/stm32f4xx_ll_sdmmc.c ****                        ##### SDMMC peripheral features #####
  17:Drivers/STM32F4xx_HAL_Driver/Src/stm32f4xx_ll_sdmmc.c ****   ==============================================================================        
  18:Drivers/STM32F4xx_HAL_Driver/Src/stm32f4xx_ll_sdmmc.c ****     [..] The SD/SDMMC MMC card host interface (SDMMC) provides an interface between the APB2
  19:Drivers/STM32F4xx_HAL_Driver/Src/stm32f4xx_ll_sdmmc.c ****          peripheral bus and MultiMedia cards (MMCs), SD memory cards, SDMMC cards and CE-ATA
  20:Drivers/STM32F4xx_HAL_Driver/Src/stm32f4xx_ll_sdmmc.c ****          devices.
  21:Drivers/STM32F4xx_HAL_Driver/Src/stm32f4xx_ll_sdmmc.c ****     
  22:Drivers/STM32F4xx_HAL_Driver/Src/stm32f4xx_ll_sdmmc.c ****     [..] The SDMMC features include the following:
  23:Drivers/STM32F4xx_HAL_Driver/Src/stm32f4xx_ll_sdmmc.c ****          (+) Full compliance with MultiMedia Card System Specification Version 4.2. Card support
  24:Drivers/STM32F4xx_HAL_Driver/Src/stm32f4xx_ll_sdmmc.c ****              for three different databus modes: 1-bit (default), 4-bit and 8-bit
  25:Drivers/STM32F4xx_HAL_Driver/Src/stm32f4xx_ll_sdmmc.c ****          (+) Full compatibility with previous versions of MultiMedia Cards (forward compatibility)
  26:Drivers/STM32F4xx_HAL_Driver/Src/stm32f4xx_ll_sdmmc.c ****          (+) Full compliance with SD Memory Card Specifications Version 2.0
  27:Drivers/STM32F4xx_HAL_Driver/Src/stm32f4xx_ll_sdmmc.c ****          (+) Full compliance with SD I/O Card Specification Version 2.0: card support for two
  28:Drivers/STM32F4xx_HAL_Driver/Src/stm32f4xx_ll_sdmmc.c ****              different data bus modes: 1-bit (default) and 4-bit
  29:Drivers/STM32F4xx_HAL_Driver/Src/stm32f4xx_ll_sdmmc.c ****          (+) Full support of the CE-ATA features (full compliance with CE-ATA digital protocol
  30:Drivers/STM32F4xx_HAL_Driver/Src/stm32f4xx_ll_sdmmc.c ****              Rev1.1)
ARM GAS  /tmp/ccDCAHOp.s 			page 2


  31:Drivers/STM32F4xx_HAL_Driver/Src/stm32f4xx_ll_sdmmc.c ****          (+) Data transfer up to 48 MHz for the 8 bit mode
  32:Drivers/STM32F4xx_HAL_Driver/Src/stm32f4xx_ll_sdmmc.c ****          (+) Data and command output enable signals to control external bidirectional drivers.
  33:Drivers/STM32F4xx_HAL_Driver/Src/stm32f4xx_ll_sdmmc.c ****                  
  34:Drivers/STM32F4xx_HAL_Driver/Src/stm32f4xx_ll_sdmmc.c ****    
  35:Drivers/STM32F4xx_HAL_Driver/Src/stm32f4xx_ll_sdmmc.c ****                            ##### How to use this driver #####
  36:Drivers/STM32F4xx_HAL_Driver/Src/stm32f4xx_ll_sdmmc.c ****   ==============================================================================
  37:Drivers/STM32F4xx_HAL_Driver/Src/stm32f4xx_ll_sdmmc.c ****     [..]
  38:Drivers/STM32F4xx_HAL_Driver/Src/stm32f4xx_ll_sdmmc.c ****       This driver is a considered as a driver of service for external devices drivers 
  39:Drivers/STM32F4xx_HAL_Driver/Src/stm32f4xx_ll_sdmmc.c ****       that interfaces with the SDMMC peripheral.
  40:Drivers/STM32F4xx_HAL_Driver/Src/stm32f4xx_ll_sdmmc.c ****       According to the device used (SD card/ MMC card / SDMMC card ...), a set of APIs 
  41:Drivers/STM32F4xx_HAL_Driver/Src/stm32f4xx_ll_sdmmc.c ****       is used in the device's driver to perform SDMMC operations and functionalities.
  42:Drivers/STM32F4xx_HAL_Driver/Src/stm32f4xx_ll_sdmmc.c ****    
  43:Drivers/STM32F4xx_HAL_Driver/Src/stm32f4xx_ll_sdmmc.c ****       This driver is almost transparent for the final user, it is only used to implement other
  44:Drivers/STM32F4xx_HAL_Driver/Src/stm32f4xx_ll_sdmmc.c ****       functionalities of the external device.
  45:Drivers/STM32F4xx_HAL_Driver/Src/stm32f4xx_ll_sdmmc.c ****    
  46:Drivers/STM32F4xx_HAL_Driver/Src/stm32f4xx_ll_sdmmc.c ****     [..]
  47:Drivers/STM32F4xx_HAL_Driver/Src/stm32f4xx_ll_sdmmc.c ****       (+) The SDMMC clock (SDMMCCLK = 48 MHz) is coming from a specific output of PLL 
  48:Drivers/STM32F4xx_HAL_Driver/Src/stm32f4xx_ll_sdmmc.c ****           (PLL48CLK). Before start working with SDMMC peripheral make sure that the
  49:Drivers/STM32F4xx_HAL_Driver/Src/stm32f4xx_ll_sdmmc.c ****           PLL is well configured.
  50:Drivers/STM32F4xx_HAL_Driver/Src/stm32f4xx_ll_sdmmc.c ****           The SDMMC peripheral uses two clock signals:
  51:Drivers/STM32F4xx_HAL_Driver/Src/stm32f4xx_ll_sdmmc.c ****           (++) SDMMC adapter clock (SDMMCCLK = 48 MHz)
  52:Drivers/STM32F4xx_HAL_Driver/Src/stm32f4xx_ll_sdmmc.c ****           (++) APB2 bus clock (PCLK2)
  53:Drivers/STM32F4xx_HAL_Driver/Src/stm32f4xx_ll_sdmmc.c ****        
  54:Drivers/STM32F4xx_HAL_Driver/Src/stm32f4xx_ll_sdmmc.c ****           -@@- PCLK2 and SDMMC_CK clock frequencies must respect the following condition:
  55:Drivers/STM32F4xx_HAL_Driver/Src/stm32f4xx_ll_sdmmc.c ****                Frequency(PCLK2) >= (3 / 8 x Frequency(SDMMC_CK))
  56:Drivers/STM32F4xx_HAL_Driver/Src/stm32f4xx_ll_sdmmc.c ****   
  57:Drivers/STM32F4xx_HAL_Driver/Src/stm32f4xx_ll_sdmmc.c ****       (+) Enable/Disable peripheral clock using RCC peripheral macros related to SDMMC
  58:Drivers/STM32F4xx_HAL_Driver/Src/stm32f4xx_ll_sdmmc.c ****           peripheral.
  59:Drivers/STM32F4xx_HAL_Driver/Src/stm32f4xx_ll_sdmmc.c **** 
  60:Drivers/STM32F4xx_HAL_Driver/Src/stm32f4xx_ll_sdmmc.c ****       (+) Enable the Power ON State using the SDIO_PowerState_ON(SDIOx) 
  61:Drivers/STM32F4xx_HAL_Driver/Src/stm32f4xx_ll_sdmmc.c ****           function and disable it using the function SDIO_PowerState_ON(SDIOx).
  62:Drivers/STM32F4xx_HAL_Driver/Src/stm32f4xx_ll_sdmmc.c ****                 
  63:Drivers/STM32F4xx_HAL_Driver/Src/stm32f4xx_ll_sdmmc.c ****       (+) Enable/Disable the clock using the __SDIO_ENABLE()/__SDIO_DISABLE() macros.
  64:Drivers/STM32F4xx_HAL_Driver/Src/stm32f4xx_ll_sdmmc.c ****   
  65:Drivers/STM32F4xx_HAL_Driver/Src/stm32f4xx_ll_sdmmc.c ****       (+) Enable/Disable the peripheral interrupts using the macros __SDIO_ENABLE_IT(hSDIO, IT) 
  66:Drivers/STM32F4xx_HAL_Driver/Src/stm32f4xx_ll_sdmmc.c ****           and __SDIO_DISABLE_IT(hSDIO, IT) if you need to use interrupt mode. 
  67:Drivers/STM32F4xx_HAL_Driver/Src/stm32f4xx_ll_sdmmc.c ****   
  68:Drivers/STM32F4xx_HAL_Driver/Src/stm32f4xx_ll_sdmmc.c ****       (+) When using the DMA mode 
  69:Drivers/STM32F4xx_HAL_Driver/Src/stm32f4xx_ll_sdmmc.c ****           (++) Configure the DMA in the MSP layer of the external device
  70:Drivers/STM32F4xx_HAL_Driver/Src/stm32f4xx_ll_sdmmc.c ****           (++) Active the needed channel Request 
  71:Drivers/STM32F4xx_HAL_Driver/Src/stm32f4xx_ll_sdmmc.c ****           (++) Enable the DMA using __SDIO_DMA_ENABLE() macro or Disable it using the macro
  72:Drivers/STM32F4xx_HAL_Driver/Src/stm32f4xx_ll_sdmmc.c ****                __SDIO_DMA_DISABLE().
  73:Drivers/STM32F4xx_HAL_Driver/Src/stm32f4xx_ll_sdmmc.c ****   
  74:Drivers/STM32F4xx_HAL_Driver/Src/stm32f4xx_ll_sdmmc.c ****       (+) To control the CPSM (Command Path State Machine) and send 
  75:Drivers/STM32F4xx_HAL_Driver/Src/stm32f4xx_ll_sdmmc.c ****           commands to the card use the SDIO_SendCommand(), 
  76:Drivers/STM32F4xx_HAL_Driver/Src/stm32f4xx_ll_sdmmc.c ****           SDIO_GetCommandResponse() and SDIO_GetResponse() functions. First, user has
  77:Drivers/STM32F4xx_HAL_Driver/Src/stm32f4xx_ll_sdmmc.c ****           to fill the command structure (pointer to SDIO_CmdInitTypeDef) according 
  78:Drivers/STM32F4xx_HAL_Driver/Src/stm32f4xx_ll_sdmmc.c ****           to the selected command to be sent.
  79:Drivers/STM32F4xx_HAL_Driver/Src/stm32f4xx_ll_sdmmc.c ****           The parameters that should be filled are:
  80:Drivers/STM32F4xx_HAL_Driver/Src/stm32f4xx_ll_sdmmc.c ****            (++) Command Argument
  81:Drivers/STM32F4xx_HAL_Driver/Src/stm32f4xx_ll_sdmmc.c ****            (++) Command Index
  82:Drivers/STM32F4xx_HAL_Driver/Src/stm32f4xx_ll_sdmmc.c ****            (++) Command Response type
  83:Drivers/STM32F4xx_HAL_Driver/Src/stm32f4xx_ll_sdmmc.c ****            (++) Command Wait
  84:Drivers/STM32F4xx_HAL_Driver/Src/stm32f4xx_ll_sdmmc.c ****            (++) CPSM Status (Enable or Disable).
  85:Drivers/STM32F4xx_HAL_Driver/Src/stm32f4xx_ll_sdmmc.c ****   
  86:Drivers/STM32F4xx_HAL_Driver/Src/stm32f4xx_ll_sdmmc.c ****           -@@- To check if the command is well received, read the SDIO_CMDRESP
  87:Drivers/STM32F4xx_HAL_Driver/Src/stm32f4xx_ll_sdmmc.c ****               register using the SDIO_GetCommandResponse().
ARM GAS  /tmp/ccDCAHOp.s 			page 3


  88:Drivers/STM32F4xx_HAL_Driver/Src/stm32f4xx_ll_sdmmc.c ****               The SDMMC responses registers (SDIO_RESP1 to SDIO_RESP2), use the
  89:Drivers/STM32F4xx_HAL_Driver/Src/stm32f4xx_ll_sdmmc.c ****               SDIO_GetResponse() function.
  90:Drivers/STM32F4xx_HAL_Driver/Src/stm32f4xx_ll_sdmmc.c ****   
  91:Drivers/STM32F4xx_HAL_Driver/Src/stm32f4xx_ll_sdmmc.c ****       (+) To control the DPSM (Data Path State Machine) and send/receive 
  92:Drivers/STM32F4xx_HAL_Driver/Src/stm32f4xx_ll_sdmmc.c ****            data to/from the card use the SDIO_ConfigData(), SDIO_GetDataCounter(), 
  93:Drivers/STM32F4xx_HAL_Driver/Src/stm32f4xx_ll_sdmmc.c ****           SDIO_ReadFIFO(), SDIO_WriteFIFO() and SDIO_GetFIFOCount() functions.
  94:Drivers/STM32F4xx_HAL_Driver/Src/stm32f4xx_ll_sdmmc.c ****   
  95:Drivers/STM32F4xx_HAL_Driver/Src/stm32f4xx_ll_sdmmc.c ****     *** Read Operations ***
  96:Drivers/STM32F4xx_HAL_Driver/Src/stm32f4xx_ll_sdmmc.c ****     =======================
  97:Drivers/STM32F4xx_HAL_Driver/Src/stm32f4xx_ll_sdmmc.c ****     [..]
  98:Drivers/STM32F4xx_HAL_Driver/Src/stm32f4xx_ll_sdmmc.c ****       (#) First, user has to fill the data structure (pointer to
  99:Drivers/STM32F4xx_HAL_Driver/Src/stm32f4xx_ll_sdmmc.c ****           SDIO_DataInitTypeDef) according to the selected data type to be received.
 100:Drivers/STM32F4xx_HAL_Driver/Src/stm32f4xx_ll_sdmmc.c ****           The parameters that should be filled are:
 101:Drivers/STM32F4xx_HAL_Driver/Src/stm32f4xx_ll_sdmmc.c ****            (++) Data TimeOut
 102:Drivers/STM32F4xx_HAL_Driver/Src/stm32f4xx_ll_sdmmc.c ****            (++) Data Length
 103:Drivers/STM32F4xx_HAL_Driver/Src/stm32f4xx_ll_sdmmc.c ****            (++) Data Block size
 104:Drivers/STM32F4xx_HAL_Driver/Src/stm32f4xx_ll_sdmmc.c ****            (++) Data Transfer direction: should be from card (To SDMMC)
 105:Drivers/STM32F4xx_HAL_Driver/Src/stm32f4xx_ll_sdmmc.c ****            (++) Data Transfer mode
 106:Drivers/STM32F4xx_HAL_Driver/Src/stm32f4xx_ll_sdmmc.c ****            (++) DPSM Status (Enable or Disable)
 107:Drivers/STM32F4xx_HAL_Driver/Src/stm32f4xx_ll_sdmmc.c ****                                      
 108:Drivers/STM32F4xx_HAL_Driver/Src/stm32f4xx_ll_sdmmc.c ****       (#) Configure the SDMMC resources to receive the data from the card
 109:Drivers/STM32F4xx_HAL_Driver/Src/stm32f4xx_ll_sdmmc.c ****           according to selected transfer mode (Refer to Step 8, 9 and 10).
 110:Drivers/STM32F4xx_HAL_Driver/Src/stm32f4xx_ll_sdmmc.c ****   
 111:Drivers/STM32F4xx_HAL_Driver/Src/stm32f4xx_ll_sdmmc.c ****       (#) Send the selected Read command (refer to step 11).
 112:Drivers/STM32F4xx_HAL_Driver/Src/stm32f4xx_ll_sdmmc.c ****                     
 113:Drivers/STM32F4xx_HAL_Driver/Src/stm32f4xx_ll_sdmmc.c ****       (#) Use the SDIO flags/interrupts to check the transfer status.
 114:Drivers/STM32F4xx_HAL_Driver/Src/stm32f4xx_ll_sdmmc.c ****   
 115:Drivers/STM32F4xx_HAL_Driver/Src/stm32f4xx_ll_sdmmc.c ****     *** Write Operations ***
 116:Drivers/STM32F4xx_HAL_Driver/Src/stm32f4xx_ll_sdmmc.c ****     ========================
 117:Drivers/STM32F4xx_HAL_Driver/Src/stm32f4xx_ll_sdmmc.c ****     [..]
 118:Drivers/STM32F4xx_HAL_Driver/Src/stm32f4xx_ll_sdmmc.c ****      (#) First, user has to fill the data structure (pointer to
 119:Drivers/STM32F4xx_HAL_Driver/Src/stm32f4xx_ll_sdmmc.c ****          SDIO_DataInitTypeDef) according to the selected data type to be received.
 120:Drivers/STM32F4xx_HAL_Driver/Src/stm32f4xx_ll_sdmmc.c ****          The parameters that should be filled are:
 121:Drivers/STM32F4xx_HAL_Driver/Src/stm32f4xx_ll_sdmmc.c ****           (++) Data TimeOut
 122:Drivers/STM32F4xx_HAL_Driver/Src/stm32f4xx_ll_sdmmc.c ****           (++) Data Length
 123:Drivers/STM32F4xx_HAL_Driver/Src/stm32f4xx_ll_sdmmc.c ****           (++) Data Block size
 124:Drivers/STM32F4xx_HAL_Driver/Src/stm32f4xx_ll_sdmmc.c ****           (++) Data Transfer direction:  should be to card (To CARD)
 125:Drivers/STM32F4xx_HAL_Driver/Src/stm32f4xx_ll_sdmmc.c ****           (++) Data Transfer mode
 126:Drivers/STM32F4xx_HAL_Driver/Src/stm32f4xx_ll_sdmmc.c ****           (++) DPSM Status (Enable or Disable)
 127:Drivers/STM32F4xx_HAL_Driver/Src/stm32f4xx_ll_sdmmc.c ****   
 128:Drivers/STM32F4xx_HAL_Driver/Src/stm32f4xx_ll_sdmmc.c ****      (#) Configure the SDMMC resources to send the data to the card according to 
 129:Drivers/STM32F4xx_HAL_Driver/Src/stm32f4xx_ll_sdmmc.c ****          selected transfer mode.
 130:Drivers/STM32F4xx_HAL_Driver/Src/stm32f4xx_ll_sdmmc.c ****                      
 131:Drivers/STM32F4xx_HAL_Driver/Src/stm32f4xx_ll_sdmmc.c ****      (#) Send the selected Write command.
 132:Drivers/STM32F4xx_HAL_Driver/Src/stm32f4xx_ll_sdmmc.c ****                     
 133:Drivers/STM32F4xx_HAL_Driver/Src/stm32f4xx_ll_sdmmc.c ****      (#) Use the SDIO flags/interrupts to check the transfer status.
 134:Drivers/STM32F4xx_HAL_Driver/Src/stm32f4xx_ll_sdmmc.c ****        
 135:Drivers/STM32F4xx_HAL_Driver/Src/stm32f4xx_ll_sdmmc.c ****     *** Command management operations ***
 136:Drivers/STM32F4xx_HAL_Driver/Src/stm32f4xx_ll_sdmmc.c ****     =====================================
 137:Drivers/STM32F4xx_HAL_Driver/Src/stm32f4xx_ll_sdmmc.c ****     [..]
 138:Drivers/STM32F4xx_HAL_Driver/Src/stm32f4xx_ll_sdmmc.c ****      (#) The commands used for Read/Write/Erase operations are managed in 
 139:Drivers/STM32F4xx_HAL_Driver/Src/stm32f4xx_ll_sdmmc.c ****          separate functions. 
 140:Drivers/STM32F4xx_HAL_Driver/Src/stm32f4xx_ll_sdmmc.c ****          Each function allows to send the needed command with the related argument,
 141:Drivers/STM32F4xx_HAL_Driver/Src/stm32f4xx_ll_sdmmc.c ****          then check the response.
 142:Drivers/STM32F4xx_HAL_Driver/Src/stm32f4xx_ll_sdmmc.c ****          By the same approach, you could implement a command and check the response.
 143:Drivers/STM32F4xx_HAL_Driver/Src/stm32f4xx_ll_sdmmc.c ****   
 144:Drivers/STM32F4xx_HAL_Driver/Src/stm32f4xx_ll_sdmmc.c ****   @endverbatim
ARM GAS  /tmp/ccDCAHOp.s 			page 4


 145:Drivers/STM32F4xx_HAL_Driver/Src/stm32f4xx_ll_sdmmc.c ****   ******************************************************************************
 146:Drivers/STM32F4xx_HAL_Driver/Src/stm32f4xx_ll_sdmmc.c ****   * @attention
 147:Drivers/STM32F4xx_HAL_Driver/Src/stm32f4xx_ll_sdmmc.c ****   *
 148:Drivers/STM32F4xx_HAL_Driver/Src/stm32f4xx_ll_sdmmc.c ****   * <h2><center>&copy; COPYRIGHT(c) 2017 STMicroelectronics</center></h2>
 149:Drivers/STM32F4xx_HAL_Driver/Src/stm32f4xx_ll_sdmmc.c ****   *
 150:Drivers/STM32F4xx_HAL_Driver/Src/stm32f4xx_ll_sdmmc.c ****   * Redistribution and use in source and binary forms, with or without modification,
 151:Drivers/STM32F4xx_HAL_Driver/Src/stm32f4xx_ll_sdmmc.c ****   * are permitted provided that the following conditions are met:
 152:Drivers/STM32F4xx_HAL_Driver/Src/stm32f4xx_ll_sdmmc.c ****   *   1. Redistributions of source code must retain the above copyright notice,
 153:Drivers/STM32F4xx_HAL_Driver/Src/stm32f4xx_ll_sdmmc.c ****   *      this list of conditions and the following disclaimer.
 154:Drivers/STM32F4xx_HAL_Driver/Src/stm32f4xx_ll_sdmmc.c ****   *   2. Redistributions in binary form must reproduce the above copyright notice,
 155:Drivers/STM32F4xx_HAL_Driver/Src/stm32f4xx_ll_sdmmc.c ****   *      this list of conditions and the following disclaimer in the documentation
 156:Drivers/STM32F4xx_HAL_Driver/Src/stm32f4xx_ll_sdmmc.c ****   *      and/or other materials provided with the distribution.
 157:Drivers/STM32F4xx_HAL_Driver/Src/stm32f4xx_ll_sdmmc.c ****   *   3. Neither the name of STMicroelectronics nor the names of its contributors
 158:Drivers/STM32F4xx_HAL_Driver/Src/stm32f4xx_ll_sdmmc.c ****   *      may be used to endorse or promote products derived from this software
 159:Drivers/STM32F4xx_HAL_Driver/Src/stm32f4xx_ll_sdmmc.c ****   *      without specific prior written permission.
 160:Drivers/STM32F4xx_HAL_Driver/Src/stm32f4xx_ll_sdmmc.c ****   *
 161:Drivers/STM32F4xx_HAL_Driver/Src/stm32f4xx_ll_sdmmc.c ****   * THIS SOFTWARE IS PROVIDED BY THE COPYRIGHT HOLDERS AND CONTRIBUTORS "AS IS"
 162:Drivers/STM32F4xx_HAL_Driver/Src/stm32f4xx_ll_sdmmc.c ****   * AND ANY EXPRESS OR IMPLIED WARRANTIES, INCLUDING, BUT NOT LIMITED TO, THE
 163:Drivers/STM32F4xx_HAL_Driver/Src/stm32f4xx_ll_sdmmc.c ****   * IMPLIED WARRANTIES OF MERCHANTABILITY AND FITNESS FOR A PARTICULAR PURPOSE ARE
 164:Drivers/STM32F4xx_HAL_Driver/Src/stm32f4xx_ll_sdmmc.c ****   * DISCLAIMED. IN NO EVENT SHALL THE COPYRIGHT HOLDER OR CONTRIBUTORS BE LIABLE
 165:Drivers/STM32F4xx_HAL_Driver/Src/stm32f4xx_ll_sdmmc.c ****   * FOR ANY DIRECT, INDIRECT, INCIDENTAL, SPECIAL, EXEMPLARY, OR CONSEQUENTIAL
 166:Drivers/STM32F4xx_HAL_Driver/Src/stm32f4xx_ll_sdmmc.c ****   * DAMAGES (INCLUDING, BUT NOT LIMITED TO, PROCUREMENT OF SUBSTITUTE GOODS OR
 167:Drivers/STM32F4xx_HAL_Driver/Src/stm32f4xx_ll_sdmmc.c ****   * SERVICES; LOSS OF USE, DATA, OR PROFITS; OR BUSINESS INTERRUPTION) HOWEVER
 168:Drivers/STM32F4xx_HAL_Driver/Src/stm32f4xx_ll_sdmmc.c ****   * CAUSED AND ON ANY THEORY OF LIABILITY, WHETHER IN CONTRACT, STRICT LIABILITY,
 169:Drivers/STM32F4xx_HAL_Driver/Src/stm32f4xx_ll_sdmmc.c ****   * OR TORT (INCLUDING NEGLIGENCE OR OTHERWISE) ARISING IN ANY WAY OUT OF THE USE
 170:Drivers/STM32F4xx_HAL_Driver/Src/stm32f4xx_ll_sdmmc.c ****   * OF THIS SOFTWARE, EVEN IF ADVISED OF THE POSSIBILITY OF SUCH DAMAGE.
 171:Drivers/STM32F4xx_HAL_Driver/Src/stm32f4xx_ll_sdmmc.c ****   *
 172:Drivers/STM32F4xx_HAL_Driver/Src/stm32f4xx_ll_sdmmc.c ****   ******************************************************************************
 173:Drivers/STM32F4xx_HAL_Driver/Src/stm32f4xx_ll_sdmmc.c ****   */ 
 174:Drivers/STM32F4xx_HAL_Driver/Src/stm32f4xx_ll_sdmmc.c **** 
 175:Drivers/STM32F4xx_HAL_Driver/Src/stm32f4xx_ll_sdmmc.c **** /* Includes ------------------------------------------------------------------*/
 176:Drivers/STM32F4xx_HAL_Driver/Src/stm32f4xx_ll_sdmmc.c **** #include "stm32f4xx_hal.h"
 177:Drivers/STM32F4xx_HAL_Driver/Src/stm32f4xx_ll_sdmmc.c **** 
 178:Drivers/STM32F4xx_HAL_Driver/Src/stm32f4xx_ll_sdmmc.c **** /** @addtogroup STM32F4xx_HAL_Driver
 179:Drivers/STM32F4xx_HAL_Driver/Src/stm32f4xx_ll_sdmmc.c ****   * @{
 180:Drivers/STM32F4xx_HAL_Driver/Src/stm32f4xx_ll_sdmmc.c ****   */
 181:Drivers/STM32F4xx_HAL_Driver/Src/stm32f4xx_ll_sdmmc.c **** 
 182:Drivers/STM32F4xx_HAL_Driver/Src/stm32f4xx_ll_sdmmc.c **** /** @defgroup SDMMC_LL SDMMC Low Layer
 183:Drivers/STM32F4xx_HAL_Driver/Src/stm32f4xx_ll_sdmmc.c ****   * @brief Low layer module for SD
 184:Drivers/STM32F4xx_HAL_Driver/Src/stm32f4xx_ll_sdmmc.c ****   * @{
 185:Drivers/STM32F4xx_HAL_Driver/Src/stm32f4xx_ll_sdmmc.c ****   */
 186:Drivers/STM32F4xx_HAL_Driver/Src/stm32f4xx_ll_sdmmc.c **** 
 187:Drivers/STM32F4xx_HAL_Driver/Src/stm32f4xx_ll_sdmmc.c **** #if defined(HAL_SD_MODULE_ENABLED) || defined(HAL_MMC_MODULE_ENABLED)
 188:Drivers/STM32F4xx_HAL_Driver/Src/stm32f4xx_ll_sdmmc.c **** #if defined(STM32F405xx) || defined(STM32F415xx) || defined(STM32F407xx) || defined(STM32F417xx) ||
 189:Drivers/STM32F4xx_HAL_Driver/Src/stm32f4xx_ll_sdmmc.c ****     defined(STM32F427xx) || defined(STM32F437xx) || defined(STM32F429xx) || defined(STM32F439xx) ||
 190:Drivers/STM32F4xx_HAL_Driver/Src/stm32f4xx_ll_sdmmc.c ****     defined(STM32F401xC) || defined(STM32F401xE) || defined(STM32F411xE) || defined(STM32F446xx) ||
 191:Drivers/STM32F4xx_HAL_Driver/Src/stm32f4xx_ll_sdmmc.c ****     defined(STM32F469xx) || defined(STM32F479xx) || defined(STM32F412Zx) || defined(STM32F412Vx) ||
 192:Drivers/STM32F4xx_HAL_Driver/Src/stm32f4xx_ll_sdmmc.c ****     defined(STM32F412Rx) || defined(STM32F412Cx) || defined(STM32F413xx) || defined(STM32F423xx)
 193:Drivers/STM32F4xx_HAL_Driver/Src/stm32f4xx_ll_sdmmc.c **** 
 194:Drivers/STM32F4xx_HAL_Driver/Src/stm32f4xx_ll_sdmmc.c **** /* Private typedef -----------------------------------------------------------*/
 195:Drivers/STM32F4xx_HAL_Driver/Src/stm32f4xx_ll_sdmmc.c **** /* Private define ------------------------------------------------------------*/
 196:Drivers/STM32F4xx_HAL_Driver/Src/stm32f4xx_ll_sdmmc.c **** /* Private macro -------------------------------------------------------------*/
 197:Drivers/STM32F4xx_HAL_Driver/Src/stm32f4xx_ll_sdmmc.c **** /* Private variables ---------------------------------------------------------*/
 198:Drivers/STM32F4xx_HAL_Driver/Src/stm32f4xx_ll_sdmmc.c **** /* Private function prototypes -----------------------------------------------*/
 199:Drivers/STM32F4xx_HAL_Driver/Src/stm32f4xx_ll_sdmmc.c **** static uint32_t SDMMC_GetCmdError(SDIO_TypeDef *SDIOx);
 200:Drivers/STM32F4xx_HAL_Driver/Src/stm32f4xx_ll_sdmmc.c **** static uint32_t SDMMC_GetCmdResp1(SDIO_TypeDef *SDIOx, uint8_t SD_CMD, uint32_t Timeout);
 201:Drivers/STM32F4xx_HAL_Driver/Src/stm32f4xx_ll_sdmmc.c **** static uint32_t SDMMC_GetCmdResp2(SDIO_TypeDef *SDIOx);
ARM GAS  /tmp/ccDCAHOp.s 			page 5


 202:Drivers/STM32F4xx_HAL_Driver/Src/stm32f4xx_ll_sdmmc.c **** static uint32_t SDMMC_GetCmdResp3(SDIO_TypeDef *SDIOx);
 203:Drivers/STM32F4xx_HAL_Driver/Src/stm32f4xx_ll_sdmmc.c **** static uint32_t SDMMC_GetCmdResp7(SDIO_TypeDef *SDIOx);
 204:Drivers/STM32F4xx_HAL_Driver/Src/stm32f4xx_ll_sdmmc.c **** static uint32_t SDMMC_GetCmdResp6(SDIO_TypeDef *SDIOx, uint8_t SD_CMD, uint16_t *pRCA);
 205:Drivers/STM32F4xx_HAL_Driver/Src/stm32f4xx_ll_sdmmc.c **** 
 206:Drivers/STM32F4xx_HAL_Driver/Src/stm32f4xx_ll_sdmmc.c **** /* Exported functions --------------------------------------------------------*/
 207:Drivers/STM32F4xx_HAL_Driver/Src/stm32f4xx_ll_sdmmc.c **** 
 208:Drivers/STM32F4xx_HAL_Driver/Src/stm32f4xx_ll_sdmmc.c **** /** @defgroup SDMMC_LL_Exported_Functions SDMMC Low Layer Exported Functions
 209:Drivers/STM32F4xx_HAL_Driver/Src/stm32f4xx_ll_sdmmc.c ****   * @{
 210:Drivers/STM32F4xx_HAL_Driver/Src/stm32f4xx_ll_sdmmc.c ****   */
 211:Drivers/STM32F4xx_HAL_Driver/Src/stm32f4xx_ll_sdmmc.c **** 
 212:Drivers/STM32F4xx_HAL_Driver/Src/stm32f4xx_ll_sdmmc.c **** /** @defgroup HAL_SDMMC_LL_Group1 Initialization de-initialization functions 
 213:Drivers/STM32F4xx_HAL_Driver/Src/stm32f4xx_ll_sdmmc.c ****  *  @brief    Initialization and Configuration functions 
 214:Drivers/STM32F4xx_HAL_Driver/Src/stm32f4xx_ll_sdmmc.c ****  *
 215:Drivers/STM32F4xx_HAL_Driver/Src/stm32f4xx_ll_sdmmc.c **** @verbatim    
 216:Drivers/STM32F4xx_HAL_Driver/Src/stm32f4xx_ll_sdmmc.c ****  ===============================================================================
 217:Drivers/STM32F4xx_HAL_Driver/Src/stm32f4xx_ll_sdmmc.c ****               ##### Initialization/de-initialization functions #####
 218:Drivers/STM32F4xx_HAL_Driver/Src/stm32f4xx_ll_sdmmc.c ****  ===============================================================================
 219:Drivers/STM32F4xx_HAL_Driver/Src/stm32f4xx_ll_sdmmc.c ****     [..]  This section provides functions allowing to:
 220:Drivers/STM32F4xx_HAL_Driver/Src/stm32f4xx_ll_sdmmc.c ****  
 221:Drivers/STM32F4xx_HAL_Driver/Src/stm32f4xx_ll_sdmmc.c **** @endverbatim
 222:Drivers/STM32F4xx_HAL_Driver/Src/stm32f4xx_ll_sdmmc.c ****   * @{
 223:Drivers/STM32F4xx_HAL_Driver/Src/stm32f4xx_ll_sdmmc.c ****   */
 224:Drivers/STM32F4xx_HAL_Driver/Src/stm32f4xx_ll_sdmmc.c **** 
 225:Drivers/STM32F4xx_HAL_Driver/Src/stm32f4xx_ll_sdmmc.c **** /**
 226:Drivers/STM32F4xx_HAL_Driver/Src/stm32f4xx_ll_sdmmc.c ****   * @brief  Initializes the SDMMC according to the specified
 227:Drivers/STM32F4xx_HAL_Driver/Src/stm32f4xx_ll_sdmmc.c ****   *         parameters in the SDMMC_InitTypeDef and create the associated handle.
 228:Drivers/STM32F4xx_HAL_Driver/Src/stm32f4xx_ll_sdmmc.c ****   * @param  SDIOx Pointer to SDMMC register base
 229:Drivers/STM32F4xx_HAL_Driver/Src/stm32f4xx_ll_sdmmc.c ****   * @param  Init SDMMC initialization structure   
 230:Drivers/STM32F4xx_HAL_Driver/Src/stm32f4xx_ll_sdmmc.c ****   * @retval HAL status
 231:Drivers/STM32F4xx_HAL_Driver/Src/stm32f4xx_ll_sdmmc.c ****   */
 232:Drivers/STM32F4xx_HAL_Driver/Src/stm32f4xx_ll_sdmmc.c **** HAL_StatusTypeDef SDIO_Init(SDIO_TypeDef *SDIOx, SDIO_InitTypeDef Init)
 233:Drivers/STM32F4xx_HAL_Driver/Src/stm32f4xx_ll_sdmmc.c **** {
 234:Drivers/STM32F4xx_HAL_Driver/Src/stm32f4xx_ll_sdmmc.c ****   uint32_t tmpreg = 0U;
 235:Drivers/STM32F4xx_HAL_Driver/Src/stm32f4xx_ll_sdmmc.c **** 
 236:Drivers/STM32F4xx_HAL_Driver/Src/stm32f4xx_ll_sdmmc.c ****   /* Check the parameters */
 237:Drivers/STM32F4xx_HAL_Driver/Src/stm32f4xx_ll_sdmmc.c ****   assert_param(IS_SDIO_ALL_INSTANCE(SDIOx));
 238:Drivers/STM32F4xx_HAL_Driver/Src/stm32f4xx_ll_sdmmc.c ****   assert_param(IS_SDIO_CLOCK_EDGE(Init.ClockEdge)); 
 239:Drivers/STM32F4xx_HAL_Driver/Src/stm32f4xx_ll_sdmmc.c ****   assert_param(IS_SDIO_CLOCK_BYPASS(Init.ClockBypass));
 240:Drivers/STM32F4xx_HAL_Driver/Src/stm32f4xx_ll_sdmmc.c ****   assert_param(IS_SDIO_CLOCK_POWER_SAVE(Init.ClockPowerSave));
 241:Drivers/STM32F4xx_HAL_Driver/Src/stm32f4xx_ll_sdmmc.c ****   assert_param(IS_SDIO_BUS_WIDE(Init.BusWide));
 242:Drivers/STM32F4xx_HAL_Driver/Src/stm32f4xx_ll_sdmmc.c ****   assert_param(IS_SDIO_HARDWARE_FLOW_CONTROL(Init.HardwareFlowControl));
 243:Drivers/STM32F4xx_HAL_Driver/Src/stm32f4xx_ll_sdmmc.c ****   assert_param(IS_SDIO_CLKDIV(Init.ClockDiv));
 244:Drivers/STM32F4xx_HAL_Driver/Src/stm32f4xx_ll_sdmmc.c ****   
 245:Drivers/STM32F4xx_HAL_Driver/Src/stm32f4xx_ll_sdmmc.c ****   /* Set SDMMC configuration parameters */
 246:Drivers/STM32F4xx_HAL_Driver/Src/stm32f4xx_ll_sdmmc.c ****   tmpreg |= (Init.ClockEdge           |\
 247:Drivers/STM32F4xx_HAL_Driver/Src/stm32f4xx_ll_sdmmc.c ****              Init.ClockBypass         |\
 248:Drivers/STM32F4xx_HAL_Driver/Src/stm32f4xx_ll_sdmmc.c ****              Init.ClockPowerSave      |\
 249:Drivers/STM32F4xx_HAL_Driver/Src/stm32f4xx_ll_sdmmc.c ****              Init.BusWide             |\
 250:Drivers/STM32F4xx_HAL_Driver/Src/stm32f4xx_ll_sdmmc.c ****              Init.HardwareFlowControl |\
 251:Drivers/STM32F4xx_HAL_Driver/Src/stm32f4xx_ll_sdmmc.c ****              Init.ClockDiv
 252:Drivers/STM32F4xx_HAL_Driver/Src/stm32f4xx_ll_sdmmc.c ****              ); 
 253:Drivers/STM32F4xx_HAL_Driver/Src/stm32f4xx_ll_sdmmc.c ****   
 254:Drivers/STM32F4xx_HAL_Driver/Src/stm32f4xx_ll_sdmmc.c ****   /* Write to SDMMC CLKCR */
 255:Drivers/STM32F4xx_HAL_Driver/Src/stm32f4xx_ll_sdmmc.c ****   MODIFY_REG(SDIOx->CLKCR, CLKCR_CLEAR_MASK, tmpreg);  
 256:Drivers/STM32F4xx_HAL_Driver/Src/stm32f4xx_ll_sdmmc.c **** 
 257:Drivers/STM32F4xx_HAL_Driver/Src/stm32f4xx_ll_sdmmc.c ****   return HAL_OK;
 258:Drivers/STM32F4xx_HAL_Driver/Src/stm32f4xx_ll_sdmmc.c **** }
ARM GAS  /tmp/ccDCAHOp.s 			page 6


 259:Drivers/STM32F4xx_HAL_Driver/Src/stm32f4xx_ll_sdmmc.c **** 
 260:Drivers/STM32F4xx_HAL_Driver/Src/stm32f4xx_ll_sdmmc.c **** 
 261:Drivers/STM32F4xx_HAL_Driver/Src/stm32f4xx_ll_sdmmc.c **** /**
 262:Drivers/STM32F4xx_HAL_Driver/Src/stm32f4xx_ll_sdmmc.c ****   * @}
 263:Drivers/STM32F4xx_HAL_Driver/Src/stm32f4xx_ll_sdmmc.c ****   */
 264:Drivers/STM32F4xx_HAL_Driver/Src/stm32f4xx_ll_sdmmc.c **** 
 265:Drivers/STM32F4xx_HAL_Driver/Src/stm32f4xx_ll_sdmmc.c **** /** @defgroup HAL_SDMMC_LL_Group2 IO operation functions 
 266:Drivers/STM32F4xx_HAL_Driver/Src/stm32f4xx_ll_sdmmc.c ****  *  @brief   Data transfers functions 
 267:Drivers/STM32F4xx_HAL_Driver/Src/stm32f4xx_ll_sdmmc.c ****  *
 268:Drivers/STM32F4xx_HAL_Driver/Src/stm32f4xx_ll_sdmmc.c **** @verbatim   
 269:Drivers/STM32F4xx_HAL_Driver/Src/stm32f4xx_ll_sdmmc.c ****  ===============================================================================
 270:Drivers/STM32F4xx_HAL_Driver/Src/stm32f4xx_ll_sdmmc.c ****                       ##### I/O operation functions #####
 271:Drivers/STM32F4xx_HAL_Driver/Src/stm32f4xx_ll_sdmmc.c ****  ===============================================================================  
 272:Drivers/STM32F4xx_HAL_Driver/Src/stm32f4xx_ll_sdmmc.c ****     [..]
 273:Drivers/STM32F4xx_HAL_Driver/Src/stm32f4xx_ll_sdmmc.c ****     This subsection provides a set of functions allowing to manage the SDMMC data 
 274:Drivers/STM32F4xx_HAL_Driver/Src/stm32f4xx_ll_sdmmc.c ****     transfers.
 275:Drivers/STM32F4xx_HAL_Driver/Src/stm32f4xx_ll_sdmmc.c **** 
 276:Drivers/STM32F4xx_HAL_Driver/Src/stm32f4xx_ll_sdmmc.c **** @endverbatim
 277:Drivers/STM32F4xx_HAL_Driver/Src/stm32f4xx_ll_sdmmc.c ****   * @{
 278:Drivers/STM32F4xx_HAL_Driver/Src/stm32f4xx_ll_sdmmc.c ****   */
 279:Drivers/STM32F4xx_HAL_Driver/Src/stm32f4xx_ll_sdmmc.c **** 
 280:Drivers/STM32F4xx_HAL_Driver/Src/stm32f4xx_ll_sdmmc.c **** /**
 281:Drivers/STM32F4xx_HAL_Driver/Src/stm32f4xx_ll_sdmmc.c ****   * @brief  Read data (word) from Rx FIFO in blocking mode (polling) 
 282:Drivers/STM32F4xx_HAL_Driver/Src/stm32f4xx_ll_sdmmc.c ****   * @param  SDIOx Pointer to SDMMC register base
 283:Drivers/STM32F4xx_HAL_Driver/Src/stm32f4xx_ll_sdmmc.c ****   * @retval HAL status
 284:Drivers/STM32F4xx_HAL_Driver/Src/stm32f4xx_ll_sdmmc.c ****   */
 285:Drivers/STM32F4xx_HAL_Driver/Src/stm32f4xx_ll_sdmmc.c **** uint32_t SDIO_ReadFIFO(SDIO_TypeDef *SDIOx)
 286:Drivers/STM32F4xx_HAL_Driver/Src/stm32f4xx_ll_sdmmc.c **** {
 287:Drivers/STM32F4xx_HAL_Driver/Src/stm32f4xx_ll_sdmmc.c ****   /* Read data from Rx FIFO */ 
 288:Drivers/STM32F4xx_HAL_Driver/Src/stm32f4xx_ll_sdmmc.c ****   return (SDIOx->FIFO);
 289:Drivers/STM32F4xx_HAL_Driver/Src/stm32f4xx_ll_sdmmc.c **** }
 290:Drivers/STM32F4xx_HAL_Driver/Src/stm32f4xx_ll_sdmmc.c **** 
 291:Drivers/STM32F4xx_HAL_Driver/Src/stm32f4xx_ll_sdmmc.c **** /**
 292:Drivers/STM32F4xx_HAL_Driver/Src/stm32f4xx_ll_sdmmc.c ****   * @brief  Write data (word) to Tx FIFO in blocking mode (polling) 
 293:Drivers/STM32F4xx_HAL_Driver/Src/stm32f4xx_ll_sdmmc.c ****   * @param  SDIOx Pointer to SDMMC register base
 294:Drivers/STM32F4xx_HAL_Driver/Src/stm32f4xx_ll_sdmmc.c ****   * @param  pWriteData pointer to data to write
 295:Drivers/STM32F4xx_HAL_Driver/Src/stm32f4xx_ll_sdmmc.c ****   * @retval HAL status
 296:Drivers/STM32F4xx_HAL_Driver/Src/stm32f4xx_ll_sdmmc.c ****   */
 297:Drivers/STM32F4xx_HAL_Driver/Src/stm32f4xx_ll_sdmmc.c **** HAL_StatusTypeDef SDIO_WriteFIFO(SDIO_TypeDef *SDIOx, uint32_t *pWriteData)
 298:Drivers/STM32F4xx_HAL_Driver/Src/stm32f4xx_ll_sdmmc.c **** { 
 299:Drivers/STM32F4xx_HAL_Driver/Src/stm32f4xx_ll_sdmmc.c ****   /* Write data to FIFO */ 
 300:Drivers/STM32F4xx_HAL_Driver/Src/stm32f4xx_ll_sdmmc.c ****   SDIOx->FIFO = *pWriteData;
 301:Drivers/STM32F4xx_HAL_Driver/Src/stm32f4xx_ll_sdmmc.c **** 
 302:Drivers/STM32F4xx_HAL_Driver/Src/stm32f4xx_ll_sdmmc.c ****   return HAL_OK;
 303:Drivers/STM32F4xx_HAL_Driver/Src/stm32f4xx_ll_sdmmc.c **** }
 304:Drivers/STM32F4xx_HAL_Driver/Src/stm32f4xx_ll_sdmmc.c **** 
 305:Drivers/STM32F4xx_HAL_Driver/Src/stm32f4xx_ll_sdmmc.c **** /**
 306:Drivers/STM32F4xx_HAL_Driver/Src/stm32f4xx_ll_sdmmc.c ****   * @}
 307:Drivers/STM32F4xx_HAL_Driver/Src/stm32f4xx_ll_sdmmc.c ****   */
 308:Drivers/STM32F4xx_HAL_Driver/Src/stm32f4xx_ll_sdmmc.c **** 
 309:Drivers/STM32F4xx_HAL_Driver/Src/stm32f4xx_ll_sdmmc.c **** /** @defgroup HAL_SDMMC_LL_Group3 Peripheral Control functions 
 310:Drivers/STM32F4xx_HAL_Driver/Src/stm32f4xx_ll_sdmmc.c ****  *  @brief   management functions 
 311:Drivers/STM32F4xx_HAL_Driver/Src/stm32f4xx_ll_sdmmc.c ****  *
 312:Drivers/STM32F4xx_HAL_Driver/Src/stm32f4xx_ll_sdmmc.c **** @verbatim   
 313:Drivers/STM32F4xx_HAL_Driver/Src/stm32f4xx_ll_sdmmc.c ****  ===============================================================================
 314:Drivers/STM32F4xx_HAL_Driver/Src/stm32f4xx_ll_sdmmc.c ****                       ##### Peripheral Control functions #####
 315:Drivers/STM32F4xx_HAL_Driver/Src/stm32f4xx_ll_sdmmc.c ****  ===============================================================================  
ARM GAS  /tmp/ccDCAHOp.s 			page 7


 316:Drivers/STM32F4xx_HAL_Driver/Src/stm32f4xx_ll_sdmmc.c ****     [..]
 317:Drivers/STM32F4xx_HAL_Driver/Src/stm32f4xx_ll_sdmmc.c ****     This subsection provides a set of functions allowing to control the SDMMC data 
 318:Drivers/STM32F4xx_HAL_Driver/Src/stm32f4xx_ll_sdmmc.c ****     transfers.
 319:Drivers/STM32F4xx_HAL_Driver/Src/stm32f4xx_ll_sdmmc.c **** 
 320:Drivers/STM32F4xx_HAL_Driver/Src/stm32f4xx_ll_sdmmc.c **** @endverbatim
 321:Drivers/STM32F4xx_HAL_Driver/Src/stm32f4xx_ll_sdmmc.c ****   * @{
 322:Drivers/STM32F4xx_HAL_Driver/Src/stm32f4xx_ll_sdmmc.c ****   */
 323:Drivers/STM32F4xx_HAL_Driver/Src/stm32f4xx_ll_sdmmc.c **** 
 324:Drivers/STM32F4xx_HAL_Driver/Src/stm32f4xx_ll_sdmmc.c **** /**
 325:Drivers/STM32F4xx_HAL_Driver/Src/stm32f4xx_ll_sdmmc.c ****   * @brief  Set SDMMC Power state to ON. 
 326:Drivers/STM32F4xx_HAL_Driver/Src/stm32f4xx_ll_sdmmc.c ****   * @param  SDIOx Pointer to SDMMC register base
 327:Drivers/STM32F4xx_HAL_Driver/Src/stm32f4xx_ll_sdmmc.c ****   * @retval HAL status
 328:Drivers/STM32F4xx_HAL_Driver/Src/stm32f4xx_ll_sdmmc.c ****   */
 329:Drivers/STM32F4xx_HAL_Driver/Src/stm32f4xx_ll_sdmmc.c **** HAL_StatusTypeDef SDIO_PowerState_ON(SDIO_TypeDef *SDIOx)
 330:Drivers/STM32F4xx_HAL_Driver/Src/stm32f4xx_ll_sdmmc.c **** {  
 331:Drivers/STM32F4xx_HAL_Driver/Src/stm32f4xx_ll_sdmmc.c ****   /* Set power state to ON */ 
 332:Drivers/STM32F4xx_HAL_Driver/Src/stm32f4xx_ll_sdmmc.c ****   SDIOx->POWER = SDIO_POWER_PWRCTRL;
 333:Drivers/STM32F4xx_HAL_Driver/Src/stm32f4xx_ll_sdmmc.c ****   
 334:Drivers/STM32F4xx_HAL_Driver/Src/stm32f4xx_ll_sdmmc.c ****   return HAL_OK;
 335:Drivers/STM32F4xx_HAL_Driver/Src/stm32f4xx_ll_sdmmc.c **** }
 336:Drivers/STM32F4xx_HAL_Driver/Src/stm32f4xx_ll_sdmmc.c **** 
 337:Drivers/STM32F4xx_HAL_Driver/Src/stm32f4xx_ll_sdmmc.c **** /**
 338:Drivers/STM32F4xx_HAL_Driver/Src/stm32f4xx_ll_sdmmc.c ****   * @brief  Set SDMMC Power state to OFF. 
 339:Drivers/STM32F4xx_HAL_Driver/Src/stm32f4xx_ll_sdmmc.c ****   * @param  SDIOx Pointer to SDMMC register base
 340:Drivers/STM32F4xx_HAL_Driver/Src/stm32f4xx_ll_sdmmc.c ****   * @retval HAL status
 341:Drivers/STM32F4xx_HAL_Driver/Src/stm32f4xx_ll_sdmmc.c ****   */
 342:Drivers/STM32F4xx_HAL_Driver/Src/stm32f4xx_ll_sdmmc.c **** HAL_StatusTypeDef SDIO_PowerState_OFF(SDIO_TypeDef *SDIOx)
 343:Drivers/STM32F4xx_HAL_Driver/Src/stm32f4xx_ll_sdmmc.c **** {
 344:Drivers/STM32F4xx_HAL_Driver/Src/stm32f4xx_ll_sdmmc.c ****   /* Set power state to OFF */
 345:Drivers/STM32F4xx_HAL_Driver/Src/stm32f4xx_ll_sdmmc.c ****   SDIOx->POWER = 0x00000000U;
 346:Drivers/STM32F4xx_HAL_Driver/Src/stm32f4xx_ll_sdmmc.c ****   
 347:Drivers/STM32F4xx_HAL_Driver/Src/stm32f4xx_ll_sdmmc.c ****   return HAL_OK;
 348:Drivers/STM32F4xx_HAL_Driver/Src/stm32f4xx_ll_sdmmc.c **** }
 349:Drivers/STM32F4xx_HAL_Driver/Src/stm32f4xx_ll_sdmmc.c **** 
 350:Drivers/STM32F4xx_HAL_Driver/Src/stm32f4xx_ll_sdmmc.c **** /**
 351:Drivers/STM32F4xx_HAL_Driver/Src/stm32f4xx_ll_sdmmc.c ****   * @brief  Get SDMMC Power state. 
 352:Drivers/STM32F4xx_HAL_Driver/Src/stm32f4xx_ll_sdmmc.c ****   * @param  SDIOx Pointer to SDMMC register base
 353:Drivers/STM32F4xx_HAL_Driver/Src/stm32f4xx_ll_sdmmc.c ****   * @retval Power status of the controller. The returned value can be one of the 
 354:Drivers/STM32F4xx_HAL_Driver/Src/stm32f4xx_ll_sdmmc.c ****   *         following values:
 355:Drivers/STM32F4xx_HAL_Driver/Src/stm32f4xx_ll_sdmmc.c ****   *            - 0x00: Power OFF
 356:Drivers/STM32F4xx_HAL_Driver/Src/stm32f4xx_ll_sdmmc.c ****   *            - 0x02: Power UP
 357:Drivers/STM32F4xx_HAL_Driver/Src/stm32f4xx_ll_sdmmc.c ****   *            - 0x03: Power ON 
 358:Drivers/STM32F4xx_HAL_Driver/Src/stm32f4xx_ll_sdmmc.c ****   */
 359:Drivers/STM32F4xx_HAL_Driver/Src/stm32f4xx_ll_sdmmc.c **** uint32_t SDIO_GetPowerState(SDIO_TypeDef *SDIOx)  
 360:Drivers/STM32F4xx_HAL_Driver/Src/stm32f4xx_ll_sdmmc.c **** {
 361:Drivers/STM32F4xx_HAL_Driver/Src/stm32f4xx_ll_sdmmc.c ****   return (SDIOx->POWER & SDIO_POWER_PWRCTRL);
 362:Drivers/STM32F4xx_HAL_Driver/Src/stm32f4xx_ll_sdmmc.c **** }
 363:Drivers/STM32F4xx_HAL_Driver/Src/stm32f4xx_ll_sdmmc.c **** 
 364:Drivers/STM32F4xx_HAL_Driver/Src/stm32f4xx_ll_sdmmc.c **** /**
 365:Drivers/STM32F4xx_HAL_Driver/Src/stm32f4xx_ll_sdmmc.c ****   * @brief  Configure the SDMMC command path according to the specified parameters in
 366:Drivers/STM32F4xx_HAL_Driver/Src/stm32f4xx_ll_sdmmc.c ****   *         SDIO_CmdInitTypeDef structure and send the command 
 367:Drivers/STM32F4xx_HAL_Driver/Src/stm32f4xx_ll_sdmmc.c ****   * @param  SDIOx Pointer to SDMMC register base
 368:Drivers/STM32F4xx_HAL_Driver/Src/stm32f4xx_ll_sdmmc.c ****   * @param  Command pointer to a SDIO_CmdInitTypeDef structure that contains 
 369:Drivers/STM32F4xx_HAL_Driver/Src/stm32f4xx_ll_sdmmc.c ****   *         the configuration information for the SDMMC command
 370:Drivers/STM32F4xx_HAL_Driver/Src/stm32f4xx_ll_sdmmc.c ****   * @retval HAL status
 371:Drivers/STM32F4xx_HAL_Driver/Src/stm32f4xx_ll_sdmmc.c ****   */
 372:Drivers/STM32F4xx_HAL_Driver/Src/stm32f4xx_ll_sdmmc.c **** HAL_StatusTypeDef SDIO_SendCommand(SDIO_TypeDef *SDIOx, SDIO_CmdInitTypeDef *Command)
ARM GAS  /tmp/ccDCAHOp.s 			page 8


 373:Drivers/STM32F4xx_HAL_Driver/Src/stm32f4xx_ll_sdmmc.c **** {
 374:Drivers/STM32F4xx_HAL_Driver/Src/stm32f4xx_ll_sdmmc.c ****   uint32_t tmpreg = 0U;
 375:Drivers/STM32F4xx_HAL_Driver/Src/stm32f4xx_ll_sdmmc.c ****   
 376:Drivers/STM32F4xx_HAL_Driver/Src/stm32f4xx_ll_sdmmc.c ****   /* Check the parameters */
 377:Drivers/STM32F4xx_HAL_Driver/Src/stm32f4xx_ll_sdmmc.c ****   assert_param(IS_SDIO_CMD_INDEX(Command->CmdIndex));
 378:Drivers/STM32F4xx_HAL_Driver/Src/stm32f4xx_ll_sdmmc.c ****   assert_param(IS_SDIO_RESPONSE(Command->Response));
 379:Drivers/STM32F4xx_HAL_Driver/Src/stm32f4xx_ll_sdmmc.c ****   assert_param(IS_SDIO_WAIT(Command->WaitForInterrupt));
 380:Drivers/STM32F4xx_HAL_Driver/Src/stm32f4xx_ll_sdmmc.c ****   assert_param(IS_SDIO_CPSM(Command->CPSM));
 381:Drivers/STM32F4xx_HAL_Driver/Src/stm32f4xx_ll_sdmmc.c **** 
 382:Drivers/STM32F4xx_HAL_Driver/Src/stm32f4xx_ll_sdmmc.c ****   /* Set the SDMMC Argument value */
 383:Drivers/STM32F4xx_HAL_Driver/Src/stm32f4xx_ll_sdmmc.c ****   SDIOx->ARG = Command->Argument;
 384:Drivers/STM32F4xx_HAL_Driver/Src/stm32f4xx_ll_sdmmc.c **** 
 385:Drivers/STM32F4xx_HAL_Driver/Src/stm32f4xx_ll_sdmmc.c ****   /* Set SDMMC command parameters */
 386:Drivers/STM32F4xx_HAL_Driver/Src/stm32f4xx_ll_sdmmc.c ****   tmpreg |= (uint32_t)(Command->CmdIndex         |\
 387:Drivers/STM32F4xx_HAL_Driver/Src/stm32f4xx_ll_sdmmc.c ****                        Command->Response         |\
 388:Drivers/STM32F4xx_HAL_Driver/Src/stm32f4xx_ll_sdmmc.c ****                        Command->WaitForInterrupt |\
 389:Drivers/STM32F4xx_HAL_Driver/Src/stm32f4xx_ll_sdmmc.c ****                        Command->CPSM);
 390:Drivers/STM32F4xx_HAL_Driver/Src/stm32f4xx_ll_sdmmc.c ****   
 391:Drivers/STM32F4xx_HAL_Driver/Src/stm32f4xx_ll_sdmmc.c ****   /* Write to SDMMC CMD register */
 392:Drivers/STM32F4xx_HAL_Driver/Src/stm32f4xx_ll_sdmmc.c ****   MODIFY_REG(SDIOx->CMD, CMD_CLEAR_MASK, tmpreg); 
 393:Drivers/STM32F4xx_HAL_Driver/Src/stm32f4xx_ll_sdmmc.c ****   
 394:Drivers/STM32F4xx_HAL_Driver/Src/stm32f4xx_ll_sdmmc.c ****   return HAL_OK;  
 395:Drivers/STM32F4xx_HAL_Driver/Src/stm32f4xx_ll_sdmmc.c **** }
 396:Drivers/STM32F4xx_HAL_Driver/Src/stm32f4xx_ll_sdmmc.c **** 
 397:Drivers/STM32F4xx_HAL_Driver/Src/stm32f4xx_ll_sdmmc.c **** /**
 398:Drivers/STM32F4xx_HAL_Driver/Src/stm32f4xx_ll_sdmmc.c ****   * @brief  Return the command index of last command for which response received
 399:Drivers/STM32F4xx_HAL_Driver/Src/stm32f4xx_ll_sdmmc.c ****   * @param  SDIOx Pointer to SDMMC register base
 400:Drivers/STM32F4xx_HAL_Driver/Src/stm32f4xx_ll_sdmmc.c ****   * @retval Command index of the last command response received
 401:Drivers/STM32F4xx_HAL_Driver/Src/stm32f4xx_ll_sdmmc.c ****   */
 402:Drivers/STM32F4xx_HAL_Driver/Src/stm32f4xx_ll_sdmmc.c **** uint8_t SDIO_GetCommandResponse(SDIO_TypeDef *SDIOx)
 403:Drivers/STM32F4xx_HAL_Driver/Src/stm32f4xx_ll_sdmmc.c **** {
 404:Drivers/STM32F4xx_HAL_Driver/Src/stm32f4xx_ll_sdmmc.c ****   return (uint8_t)(SDIOx->RESPCMD);
 405:Drivers/STM32F4xx_HAL_Driver/Src/stm32f4xx_ll_sdmmc.c **** }
 406:Drivers/STM32F4xx_HAL_Driver/Src/stm32f4xx_ll_sdmmc.c **** 
 407:Drivers/STM32F4xx_HAL_Driver/Src/stm32f4xx_ll_sdmmc.c **** 
 408:Drivers/STM32F4xx_HAL_Driver/Src/stm32f4xx_ll_sdmmc.c **** /**
 409:Drivers/STM32F4xx_HAL_Driver/Src/stm32f4xx_ll_sdmmc.c ****   * @brief  Return the response received from the card for the last command
 410:Drivers/STM32F4xx_HAL_Driver/Src/stm32f4xx_ll_sdmmc.c ****   * @param  SDIOx Pointer to SDMMC register base    
 411:Drivers/STM32F4xx_HAL_Driver/Src/stm32f4xx_ll_sdmmc.c ****   * @param  Response Specifies the SDMMC response register. 
 412:Drivers/STM32F4xx_HAL_Driver/Src/stm32f4xx_ll_sdmmc.c ****   *          This parameter can be one of the following values:
 413:Drivers/STM32F4xx_HAL_Driver/Src/stm32f4xx_ll_sdmmc.c ****   *            @arg SDIO_RESP1: Response Register 1
 414:Drivers/STM32F4xx_HAL_Driver/Src/stm32f4xx_ll_sdmmc.c ****   *            @arg SDIO_RESP1: Response Register 2
 415:Drivers/STM32F4xx_HAL_Driver/Src/stm32f4xx_ll_sdmmc.c ****   *            @arg SDIO_RESP1: Response Register 3
 416:Drivers/STM32F4xx_HAL_Driver/Src/stm32f4xx_ll_sdmmc.c ****   *            @arg SDIO_RESP1: Response Register 4  
 417:Drivers/STM32F4xx_HAL_Driver/Src/stm32f4xx_ll_sdmmc.c ****   * @retval The Corresponding response register value
 418:Drivers/STM32F4xx_HAL_Driver/Src/stm32f4xx_ll_sdmmc.c ****   */
 419:Drivers/STM32F4xx_HAL_Driver/Src/stm32f4xx_ll_sdmmc.c **** uint32_t SDIO_GetResponse(SDIO_TypeDef *SDIOx, uint32_t Response)
 420:Drivers/STM32F4xx_HAL_Driver/Src/stm32f4xx_ll_sdmmc.c **** {
 421:Drivers/STM32F4xx_HAL_Driver/Src/stm32f4xx_ll_sdmmc.c ****   __IO uint32_t tmp = 0U;
 422:Drivers/STM32F4xx_HAL_Driver/Src/stm32f4xx_ll_sdmmc.c **** 
 423:Drivers/STM32F4xx_HAL_Driver/Src/stm32f4xx_ll_sdmmc.c ****   /* Check the parameters */
 424:Drivers/STM32F4xx_HAL_Driver/Src/stm32f4xx_ll_sdmmc.c ****   assert_param(IS_SDIO_RESP(Response));
 425:Drivers/STM32F4xx_HAL_Driver/Src/stm32f4xx_ll_sdmmc.c ****   
 426:Drivers/STM32F4xx_HAL_Driver/Src/stm32f4xx_ll_sdmmc.c ****   /* Get the response */
 427:Drivers/STM32F4xx_HAL_Driver/Src/stm32f4xx_ll_sdmmc.c ****   tmp = (uint32_t)&(SDIOx->RESP1) + Response;
 428:Drivers/STM32F4xx_HAL_Driver/Src/stm32f4xx_ll_sdmmc.c ****   
 429:Drivers/STM32F4xx_HAL_Driver/Src/stm32f4xx_ll_sdmmc.c ****   return (*(__IO uint32_t *) tmp);
ARM GAS  /tmp/ccDCAHOp.s 			page 9


 430:Drivers/STM32F4xx_HAL_Driver/Src/stm32f4xx_ll_sdmmc.c **** }  
 431:Drivers/STM32F4xx_HAL_Driver/Src/stm32f4xx_ll_sdmmc.c **** 
 432:Drivers/STM32F4xx_HAL_Driver/Src/stm32f4xx_ll_sdmmc.c **** /**
 433:Drivers/STM32F4xx_HAL_Driver/Src/stm32f4xx_ll_sdmmc.c ****   * @brief  Configure the SDMMC data path according to the specified 
 434:Drivers/STM32F4xx_HAL_Driver/Src/stm32f4xx_ll_sdmmc.c ****   *         parameters in the SDIO_DataInitTypeDef.
 435:Drivers/STM32F4xx_HAL_Driver/Src/stm32f4xx_ll_sdmmc.c ****   * @param  SDIOx Pointer to SDMMC register base  
 436:Drivers/STM32F4xx_HAL_Driver/Src/stm32f4xx_ll_sdmmc.c ****   * @param  Data  pointer to a SDIO_DataInitTypeDef structure 
 437:Drivers/STM32F4xx_HAL_Driver/Src/stm32f4xx_ll_sdmmc.c ****   *         that contains the configuration information for the SDMMC data.
 438:Drivers/STM32F4xx_HAL_Driver/Src/stm32f4xx_ll_sdmmc.c ****   * @retval HAL status
 439:Drivers/STM32F4xx_HAL_Driver/Src/stm32f4xx_ll_sdmmc.c ****   */
 440:Drivers/STM32F4xx_HAL_Driver/Src/stm32f4xx_ll_sdmmc.c **** HAL_StatusTypeDef SDIO_ConfigData(SDIO_TypeDef *SDIOx, SDIO_DataInitTypeDef* Data)
 441:Drivers/STM32F4xx_HAL_Driver/Src/stm32f4xx_ll_sdmmc.c **** {
 442:Drivers/STM32F4xx_HAL_Driver/Src/stm32f4xx_ll_sdmmc.c ****   uint32_t tmpreg = 0U;
 443:Drivers/STM32F4xx_HAL_Driver/Src/stm32f4xx_ll_sdmmc.c ****   
 444:Drivers/STM32F4xx_HAL_Driver/Src/stm32f4xx_ll_sdmmc.c ****   /* Check the parameters */
 445:Drivers/STM32F4xx_HAL_Driver/Src/stm32f4xx_ll_sdmmc.c ****   assert_param(IS_SDIO_DATA_LENGTH(Data->DataLength));
 446:Drivers/STM32F4xx_HAL_Driver/Src/stm32f4xx_ll_sdmmc.c ****   assert_param(IS_SDIO_BLOCK_SIZE(Data->DataBlockSize));
 447:Drivers/STM32F4xx_HAL_Driver/Src/stm32f4xx_ll_sdmmc.c ****   assert_param(IS_SDIO_TRANSFER_DIR(Data->TransferDir));
 448:Drivers/STM32F4xx_HAL_Driver/Src/stm32f4xx_ll_sdmmc.c ****   assert_param(IS_SDIO_TRANSFER_MODE(Data->TransferMode));
 449:Drivers/STM32F4xx_HAL_Driver/Src/stm32f4xx_ll_sdmmc.c ****   assert_param(IS_SDIO_DPSM(Data->DPSM));
 450:Drivers/STM32F4xx_HAL_Driver/Src/stm32f4xx_ll_sdmmc.c **** 
 451:Drivers/STM32F4xx_HAL_Driver/Src/stm32f4xx_ll_sdmmc.c ****   /* Set the SDMMC Data TimeOut value */
 452:Drivers/STM32F4xx_HAL_Driver/Src/stm32f4xx_ll_sdmmc.c ****   SDIOx->DTIMER = Data->DataTimeOut;
 453:Drivers/STM32F4xx_HAL_Driver/Src/stm32f4xx_ll_sdmmc.c **** 
 454:Drivers/STM32F4xx_HAL_Driver/Src/stm32f4xx_ll_sdmmc.c ****   /* Set the SDMMC DataLength value */
 455:Drivers/STM32F4xx_HAL_Driver/Src/stm32f4xx_ll_sdmmc.c ****   SDIOx->DLEN = Data->DataLength;
 456:Drivers/STM32F4xx_HAL_Driver/Src/stm32f4xx_ll_sdmmc.c **** 
 457:Drivers/STM32F4xx_HAL_Driver/Src/stm32f4xx_ll_sdmmc.c ****   /* Set the SDMMC data configuration parameters */
 458:Drivers/STM32F4xx_HAL_Driver/Src/stm32f4xx_ll_sdmmc.c ****   tmpreg |= (uint32_t)(Data->DataBlockSize |\
 459:Drivers/STM32F4xx_HAL_Driver/Src/stm32f4xx_ll_sdmmc.c ****                        Data->TransferDir   |\
 460:Drivers/STM32F4xx_HAL_Driver/Src/stm32f4xx_ll_sdmmc.c ****                        Data->TransferMode  |\
 461:Drivers/STM32F4xx_HAL_Driver/Src/stm32f4xx_ll_sdmmc.c ****                        Data->DPSM);
 462:Drivers/STM32F4xx_HAL_Driver/Src/stm32f4xx_ll_sdmmc.c ****   
 463:Drivers/STM32F4xx_HAL_Driver/Src/stm32f4xx_ll_sdmmc.c ****   /* Write to SDMMC DCTRL */
 464:Drivers/STM32F4xx_HAL_Driver/Src/stm32f4xx_ll_sdmmc.c ****   MODIFY_REG(SDIOx->DCTRL, DCTRL_CLEAR_MASK, tmpreg);
 465:Drivers/STM32F4xx_HAL_Driver/Src/stm32f4xx_ll_sdmmc.c **** 
 466:Drivers/STM32F4xx_HAL_Driver/Src/stm32f4xx_ll_sdmmc.c ****   return HAL_OK;
 467:Drivers/STM32F4xx_HAL_Driver/Src/stm32f4xx_ll_sdmmc.c **** 
 468:Drivers/STM32F4xx_HAL_Driver/Src/stm32f4xx_ll_sdmmc.c **** }
 469:Drivers/STM32F4xx_HAL_Driver/Src/stm32f4xx_ll_sdmmc.c **** 
 470:Drivers/STM32F4xx_HAL_Driver/Src/stm32f4xx_ll_sdmmc.c **** /**
 471:Drivers/STM32F4xx_HAL_Driver/Src/stm32f4xx_ll_sdmmc.c ****   * @brief  Returns number of remaining data bytes to be transferred.
 472:Drivers/STM32F4xx_HAL_Driver/Src/stm32f4xx_ll_sdmmc.c ****   * @param  SDIOx Pointer to SDMMC register base
 473:Drivers/STM32F4xx_HAL_Driver/Src/stm32f4xx_ll_sdmmc.c ****   * @retval Number of remaining data bytes to be transferred
 474:Drivers/STM32F4xx_HAL_Driver/Src/stm32f4xx_ll_sdmmc.c ****   */
 475:Drivers/STM32F4xx_HAL_Driver/Src/stm32f4xx_ll_sdmmc.c **** uint32_t SDIO_GetDataCounter(SDIO_TypeDef *SDIOx)
 476:Drivers/STM32F4xx_HAL_Driver/Src/stm32f4xx_ll_sdmmc.c **** {
 477:Drivers/STM32F4xx_HAL_Driver/Src/stm32f4xx_ll_sdmmc.c ****   return (SDIOx->DCOUNT);
 478:Drivers/STM32F4xx_HAL_Driver/Src/stm32f4xx_ll_sdmmc.c **** }
 479:Drivers/STM32F4xx_HAL_Driver/Src/stm32f4xx_ll_sdmmc.c **** 
 480:Drivers/STM32F4xx_HAL_Driver/Src/stm32f4xx_ll_sdmmc.c **** /**
 481:Drivers/STM32F4xx_HAL_Driver/Src/stm32f4xx_ll_sdmmc.c ****   * @brief  Get the FIFO data
 482:Drivers/STM32F4xx_HAL_Driver/Src/stm32f4xx_ll_sdmmc.c ****   * @param  SDIOx Pointer to SDMMC register base 
 483:Drivers/STM32F4xx_HAL_Driver/Src/stm32f4xx_ll_sdmmc.c ****   * @retval Data received
 484:Drivers/STM32F4xx_HAL_Driver/Src/stm32f4xx_ll_sdmmc.c ****   */
 485:Drivers/STM32F4xx_HAL_Driver/Src/stm32f4xx_ll_sdmmc.c **** uint32_t SDIO_GetFIFOCount(SDIO_TypeDef *SDIOx)
 486:Drivers/STM32F4xx_HAL_Driver/Src/stm32f4xx_ll_sdmmc.c **** {
ARM GAS  /tmp/ccDCAHOp.s 			page 10


 487:Drivers/STM32F4xx_HAL_Driver/Src/stm32f4xx_ll_sdmmc.c ****   return (SDIOx->FIFO);
 488:Drivers/STM32F4xx_HAL_Driver/Src/stm32f4xx_ll_sdmmc.c **** }
 489:Drivers/STM32F4xx_HAL_Driver/Src/stm32f4xx_ll_sdmmc.c **** 
 490:Drivers/STM32F4xx_HAL_Driver/Src/stm32f4xx_ll_sdmmc.c **** /**
 491:Drivers/STM32F4xx_HAL_Driver/Src/stm32f4xx_ll_sdmmc.c ****   * @brief  Sets one of the two options of inserting read wait interval.
 492:Drivers/STM32F4xx_HAL_Driver/Src/stm32f4xx_ll_sdmmc.c ****   * @param  SDIOx Pointer to SDMMC register base   
 493:Drivers/STM32F4xx_HAL_Driver/Src/stm32f4xx_ll_sdmmc.c ****   * @param  SDIO_ReadWaitMode SDMMC Read Wait operation mode.
 494:Drivers/STM32F4xx_HAL_Driver/Src/stm32f4xx_ll_sdmmc.c ****   *          This parameter can be:
 495:Drivers/STM32F4xx_HAL_Driver/Src/stm32f4xx_ll_sdmmc.c ****   *            @arg SDIO_READ_WAIT_MODE_CLK: Read Wait control by stopping SDMMCCLK
 496:Drivers/STM32F4xx_HAL_Driver/Src/stm32f4xx_ll_sdmmc.c ****   *            @arg SDIO_READ_WAIT_MODE_DATA2: Read Wait control using SDMMC_DATA2
 497:Drivers/STM32F4xx_HAL_Driver/Src/stm32f4xx_ll_sdmmc.c ****   * @retval None
 498:Drivers/STM32F4xx_HAL_Driver/Src/stm32f4xx_ll_sdmmc.c ****   */
 499:Drivers/STM32F4xx_HAL_Driver/Src/stm32f4xx_ll_sdmmc.c **** HAL_StatusTypeDef SDIO_SetSDMMCReadWaitMode(SDIO_TypeDef *SDIOx, uint32_t SDIO_ReadWaitMode)
 500:Drivers/STM32F4xx_HAL_Driver/Src/stm32f4xx_ll_sdmmc.c **** {
 501:Drivers/STM32F4xx_HAL_Driver/Src/stm32f4xx_ll_sdmmc.c ****   /* Check the parameters */
 502:Drivers/STM32F4xx_HAL_Driver/Src/stm32f4xx_ll_sdmmc.c ****   assert_param(IS_SDIO_READWAIT_MODE(SDIO_ReadWaitMode));
 503:Drivers/STM32F4xx_HAL_Driver/Src/stm32f4xx_ll_sdmmc.c **** 
 504:Drivers/STM32F4xx_HAL_Driver/Src/stm32f4xx_ll_sdmmc.c ****   /* Set SDMMC read wait mode */
 505:Drivers/STM32F4xx_HAL_Driver/Src/stm32f4xx_ll_sdmmc.c ****   MODIFY_REG(SDIOx->DCTRL, SDIO_DCTRL_RWMOD, SDIO_ReadWaitMode);
 506:Drivers/STM32F4xx_HAL_Driver/Src/stm32f4xx_ll_sdmmc.c ****   
 507:Drivers/STM32F4xx_HAL_Driver/Src/stm32f4xx_ll_sdmmc.c ****   return HAL_OK;  
 508:Drivers/STM32F4xx_HAL_Driver/Src/stm32f4xx_ll_sdmmc.c **** }
 509:Drivers/STM32F4xx_HAL_Driver/Src/stm32f4xx_ll_sdmmc.c **** 
 510:Drivers/STM32F4xx_HAL_Driver/Src/stm32f4xx_ll_sdmmc.c **** /**
 511:Drivers/STM32F4xx_HAL_Driver/Src/stm32f4xx_ll_sdmmc.c ****   * @}
 512:Drivers/STM32F4xx_HAL_Driver/Src/stm32f4xx_ll_sdmmc.c ****   */
 513:Drivers/STM32F4xx_HAL_Driver/Src/stm32f4xx_ll_sdmmc.c **** 
 514:Drivers/STM32F4xx_HAL_Driver/Src/stm32f4xx_ll_sdmmc.c **** 
 515:Drivers/STM32F4xx_HAL_Driver/Src/stm32f4xx_ll_sdmmc.c **** /** @defgroup HAL_SDMMC_LL_Group4 Command management functions 
 516:Drivers/STM32F4xx_HAL_Driver/Src/stm32f4xx_ll_sdmmc.c ****  *  @brief   Data transfers functions 
 517:Drivers/STM32F4xx_HAL_Driver/Src/stm32f4xx_ll_sdmmc.c ****  *
 518:Drivers/STM32F4xx_HAL_Driver/Src/stm32f4xx_ll_sdmmc.c **** @verbatim   
 519:Drivers/STM32F4xx_HAL_Driver/Src/stm32f4xx_ll_sdmmc.c ****  ===============================================================================
 520:Drivers/STM32F4xx_HAL_Driver/Src/stm32f4xx_ll_sdmmc.c ****                    ##### Commands management functions #####
 521:Drivers/STM32F4xx_HAL_Driver/Src/stm32f4xx_ll_sdmmc.c ****  ===============================================================================  
 522:Drivers/STM32F4xx_HAL_Driver/Src/stm32f4xx_ll_sdmmc.c ****     [..]
 523:Drivers/STM32F4xx_HAL_Driver/Src/stm32f4xx_ll_sdmmc.c ****     This subsection provides a set of functions allowing to manage the needed commands.
 524:Drivers/STM32F4xx_HAL_Driver/Src/stm32f4xx_ll_sdmmc.c **** 
 525:Drivers/STM32F4xx_HAL_Driver/Src/stm32f4xx_ll_sdmmc.c **** @endverbatim
 526:Drivers/STM32F4xx_HAL_Driver/Src/stm32f4xx_ll_sdmmc.c ****   * @{
 527:Drivers/STM32F4xx_HAL_Driver/Src/stm32f4xx_ll_sdmmc.c ****   */
 528:Drivers/STM32F4xx_HAL_Driver/Src/stm32f4xx_ll_sdmmc.c **** 
 529:Drivers/STM32F4xx_HAL_Driver/Src/stm32f4xx_ll_sdmmc.c **** /**
 530:Drivers/STM32F4xx_HAL_Driver/Src/stm32f4xx_ll_sdmmc.c ****   * @brief  Send the Data Block Lenght command and check the response
 531:Drivers/STM32F4xx_HAL_Driver/Src/stm32f4xx_ll_sdmmc.c ****   * @param  SDIOx Pointer to SDMMC register base 
 532:Drivers/STM32F4xx_HAL_Driver/Src/stm32f4xx_ll_sdmmc.c ****   * @retval HAL status
 533:Drivers/STM32F4xx_HAL_Driver/Src/stm32f4xx_ll_sdmmc.c ****   */
 534:Drivers/STM32F4xx_HAL_Driver/Src/stm32f4xx_ll_sdmmc.c **** uint32_t SDMMC_CmdBlockLength(SDIO_TypeDef *SDIOx, uint32_t BlockSize)
 535:Drivers/STM32F4xx_HAL_Driver/Src/stm32f4xx_ll_sdmmc.c **** {
 536:Drivers/STM32F4xx_HAL_Driver/Src/stm32f4xx_ll_sdmmc.c ****   SDIO_CmdInitTypeDef  sdmmc_cmdinit;
 537:Drivers/STM32F4xx_HAL_Driver/Src/stm32f4xx_ll_sdmmc.c ****   uint32_t errorstate = SDMMC_ERROR_NONE;
 538:Drivers/STM32F4xx_HAL_Driver/Src/stm32f4xx_ll_sdmmc.c ****   
 539:Drivers/STM32F4xx_HAL_Driver/Src/stm32f4xx_ll_sdmmc.c ****   /* Set Block Size for Card */ 
 540:Drivers/STM32F4xx_HAL_Driver/Src/stm32f4xx_ll_sdmmc.c ****   sdmmc_cmdinit.Argument         = (uint32_t)BlockSize;
 541:Drivers/STM32F4xx_HAL_Driver/Src/stm32f4xx_ll_sdmmc.c ****   sdmmc_cmdinit.CmdIndex         = SDMMC_CMD_SET_BLOCKLEN;
 542:Drivers/STM32F4xx_HAL_Driver/Src/stm32f4xx_ll_sdmmc.c ****   sdmmc_cmdinit.Response         = SDIO_RESPONSE_SHORT;
 543:Drivers/STM32F4xx_HAL_Driver/Src/stm32f4xx_ll_sdmmc.c ****   sdmmc_cmdinit.WaitForInterrupt = SDIO_WAIT_NO;
ARM GAS  /tmp/ccDCAHOp.s 			page 11


 544:Drivers/STM32F4xx_HAL_Driver/Src/stm32f4xx_ll_sdmmc.c ****   sdmmc_cmdinit.CPSM             = SDIO_CPSM_ENABLE;
 545:Drivers/STM32F4xx_HAL_Driver/Src/stm32f4xx_ll_sdmmc.c ****   SDIO_SendCommand(SDIOx, &sdmmc_cmdinit);
 546:Drivers/STM32F4xx_HAL_Driver/Src/stm32f4xx_ll_sdmmc.c ****   
 547:Drivers/STM32F4xx_HAL_Driver/Src/stm32f4xx_ll_sdmmc.c ****   /* Check for error conditions */
 548:Drivers/STM32F4xx_HAL_Driver/Src/stm32f4xx_ll_sdmmc.c ****   errorstate = SDMMC_GetCmdResp1(SDIOx, SDMMC_CMD_SET_BLOCKLEN, SDIO_CMDTIMEOUT);
 549:Drivers/STM32F4xx_HAL_Driver/Src/stm32f4xx_ll_sdmmc.c **** 
 550:Drivers/STM32F4xx_HAL_Driver/Src/stm32f4xx_ll_sdmmc.c ****   return errorstate;
 551:Drivers/STM32F4xx_HAL_Driver/Src/stm32f4xx_ll_sdmmc.c **** }
 552:Drivers/STM32F4xx_HAL_Driver/Src/stm32f4xx_ll_sdmmc.c **** 
 553:Drivers/STM32F4xx_HAL_Driver/Src/stm32f4xx_ll_sdmmc.c **** /**
 554:Drivers/STM32F4xx_HAL_Driver/Src/stm32f4xx_ll_sdmmc.c ****   * @brief  Send the Read Single Block command and check the response
 555:Drivers/STM32F4xx_HAL_Driver/Src/stm32f4xx_ll_sdmmc.c ****   * @param  SDIOx Pointer to SDMMC register base 
 556:Drivers/STM32F4xx_HAL_Driver/Src/stm32f4xx_ll_sdmmc.c ****   * @retval HAL status
 557:Drivers/STM32F4xx_HAL_Driver/Src/stm32f4xx_ll_sdmmc.c ****   */
 558:Drivers/STM32F4xx_HAL_Driver/Src/stm32f4xx_ll_sdmmc.c **** uint32_t SDMMC_CmdReadSingleBlock(SDIO_TypeDef *SDIOx, uint32_t ReadAdd)
 559:Drivers/STM32F4xx_HAL_Driver/Src/stm32f4xx_ll_sdmmc.c **** {
 560:Drivers/STM32F4xx_HAL_Driver/Src/stm32f4xx_ll_sdmmc.c ****   SDIO_CmdInitTypeDef  sdmmc_cmdinit;
 561:Drivers/STM32F4xx_HAL_Driver/Src/stm32f4xx_ll_sdmmc.c ****   uint32_t errorstate = SDMMC_ERROR_NONE;
 562:Drivers/STM32F4xx_HAL_Driver/Src/stm32f4xx_ll_sdmmc.c ****   
 563:Drivers/STM32F4xx_HAL_Driver/Src/stm32f4xx_ll_sdmmc.c ****   /* Set Block Size for Card */ 
 564:Drivers/STM32F4xx_HAL_Driver/Src/stm32f4xx_ll_sdmmc.c ****   sdmmc_cmdinit.Argument         = (uint32_t)ReadAdd;
 565:Drivers/STM32F4xx_HAL_Driver/Src/stm32f4xx_ll_sdmmc.c ****   sdmmc_cmdinit.CmdIndex         = SDMMC_CMD_READ_SINGLE_BLOCK;
 566:Drivers/STM32F4xx_HAL_Driver/Src/stm32f4xx_ll_sdmmc.c ****   sdmmc_cmdinit.Response         = SDIO_RESPONSE_SHORT;
 567:Drivers/STM32F4xx_HAL_Driver/Src/stm32f4xx_ll_sdmmc.c ****   sdmmc_cmdinit.WaitForInterrupt = SDIO_WAIT_NO;
 568:Drivers/STM32F4xx_HAL_Driver/Src/stm32f4xx_ll_sdmmc.c ****   sdmmc_cmdinit.CPSM             = SDIO_CPSM_ENABLE;
 569:Drivers/STM32F4xx_HAL_Driver/Src/stm32f4xx_ll_sdmmc.c ****   SDIO_SendCommand(SDIOx, &sdmmc_cmdinit);
 570:Drivers/STM32F4xx_HAL_Driver/Src/stm32f4xx_ll_sdmmc.c ****   
 571:Drivers/STM32F4xx_HAL_Driver/Src/stm32f4xx_ll_sdmmc.c ****   /* Check for error conditions */
 572:Drivers/STM32F4xx_HAL_Driver/Src/stm32f4xx_ll_sdmmc.c ****   errorstate = SDMMC_GetCmdResp1(SDIOx, SDMMC_CMD_READ_SINGLE_BLOCK, SDIO_CMDTIMEOUT);
 573:Drivers/STM32F4xx_HAL_Driver/Src/stm32f4xx_ll_sdmmc.c **** 
 574:Drivers/STM32F4xx_HAL_Driver/Src/stm32f4xx_ll_sdmmc.c ****   return errorstate;
 575:Drivers/STM32F4xx_HAL_Driver/Src/stm32f4xx_ll_sdmmc.c **** }
 576:Drivers/STM32F4xx_HAL_Driver/Src/stm32f4xx_ll_sdmmc.c **** 
 577:Drivers/STM32F4xx_HAL_Driver/Src/stm32f4xx_ll_sdmmc.c **** /**
 578:Drivers/STM32F4xx_HAL_Driver/Src/stm32f4xx_ll_sdmmc.c ****   * @brief  Send the Read Multi Block command and check the response
 579:Drivers/STM32F4xx_HAL_Driver/Src/stm32f4xx_ll_sdmmc.c ****   * @param  SDIOx Pointer to SDIO register base 
 580:Drivers/STM32F4xx_HAL_Driver/Src/stm32f4xx_ll_sdmmc.c ****   * @retval HAL status
 581:Drivers/STM32F4xx_HAL_Driver/Src/stm32f4xx_ll_sdmmc.c ****   */
 582:Drivers/STM32F4xx_HAL_Driver/Src/stm32f4xx_ll_sdmmc.c **** uint32_t SDMMC_CmdReadMultiBlock(SDIO_TypeDef *SDIOx, uint32_t ReadAdd)
 583:Drivers/STM32F4xx_HAL_Driver/Src/stm32f4xx_ll_sdmmc.c **** {
 584:Drivers/STM32F4xx_HAL_Driver/Src/stm32f4xx_ll_sdmmc.c ****   SDIO_CmdInitTypeDef  sdmmc_cmdinit;
 585:Drivers/STM32F4xx_HAL_Driver/Src/stm32f4xx_ll_sdmmc.c ****   uint32_t errorstate = SDMMC_ERROR_NONE;
 586:Drivers/STM32F4xx_HAL_Driver/Src/stm32f4xx_ll_sdmmc.c ****   
 587:Drivers/STM32F4xx_HAL_Driver/Src/stm32f4xx_ll_sdmmc.c ****   /* Set Block Size for Card */ 
 588:Drivers/STM32F4xx_HAL_Driver/Src/stm32f4xx_ll_sdmmc.c ****   sdmmc_cmdinit.Argument         = (uint32_t)ReadAdd;
 589:Drivers/STM32F4xx_HAL_Driver/Src/stm32f4xx_ll_sdmmc.c ****   sdmmc_cmdinit.CmdIndex         = SDMMC_CMD_READ_MULT_BLOCK;
 590:Drivers/STM32F4xx_HAL_Driver/Src/stm32f4xx_ll_sdmmc.c ****   sdmmc_cmdinit.Response         = SDIO_RESPONSE_SHORT;
 591:Drivers/STM32F4xx_HAL_Driver/Src/stm32f4xx_ll_sdmmc.c ****   sdmmc_cmdinit.WaitForInterrupt = SDIO_WAIT_NO;
 592:Drivers/STM32F4xx_HAL_Driver/Src/stm32f4xx_ll_sdmmc.c ****   sdmmc_cmdinit.CPSM             = SDIO_CPSM_ENABLE;
 593:Drivers/STM32F4xx_HAL_Driver/Src/stm32f4xx_ll_sdmmc.c ****   SDIO_SendCommand(SDIOx, &sdmmc_cmdinit);
 594:Drivers/STM32F4xx_HAL_Driver/Src/stm32f4xx_ll_sdmmc.c ****   
 595:Drivers/STM32F4xx_HAL_Driver/Src/stm32f4xx_ll_sdmmc.c ****   /* Check for error conditions */
 596:Drivers/STM32F4xx_HAL_Driver/Src/stm32f4xx_ll_sdmmc.c ****   errorstate = SDMMC_GetCmdResp1(SDIOx, SDMMC_CMD_READ_MULT_BLOCK, SDIO_CMDTIMEOUT);
 597:Drivers/STM32F4xx_HAL_Driver/Src/stm32f4xx_ll_sdmmc.c **** 
 598:Drivers/STM32F4xx_HAL_Driver/Src/stm32f4xx_ll_sdmmc.c ****   return errorstate;
 599:Drivers/STM32F4xx_HAL_Driver/Src/stm32f4xx_ll_sdmmc.c **** }
 600:Drivers/STM32F4xx_HAL_Driver/Src/stm32f4xx_ll_sdmmc.c **** 
ARM GAS  /tmp/ccDCAHOp.s 			page 12


 601:Drivers/STM32F4xx_HAL_Driver/Src/stm32f4xx_ll_sdmmc.c **** /**
 602:Drivers/STM32F4xx_HAL_Driver/Src/stm32f4xx_ll_sdmmc.c ****   * @brief  Send the Write Single Block command and check the response
 603:Drivers/STM32F4xx_HAL_Driver/Src/stm32f4xx_ll_sdmmc.c ****   * @param  SDIOx Pointer to SDIO register base 
 604:Drivers/STM32F4xx_HAL_Driver/Src/stm32f4xx_ll_sdmmc.c ****   * @retval HAL status
 605:Drivers/STM32F4xx_HAL_Driver/Src/stm32f4xx_ll_sdmmc.c ****   */
 606:Drivers/STM32F4xx_HAL_Driver/Src/stm32f4xx_ll_sdmmc.c **** uint32_t SDMMC_CmdWriteSingleBlock(SDIO_TypeDef *SDIOx, uint32_t WriteAdd)
 607:Drivers/STM32F4xx_HAL_Driver/Src/stm32f4xx_ll_sdmmc.c **** {
 608:Drivers/STM32F4xx_HAL_Driver/Src/stm32f4xx_ll_sdmmc.c ****   SDIO_CmdInitTypeDef  sdmmc_cmdinit;
 609:Drivers/STM32F4xx_HAL_Driver/Src/stm32f4xx_ll_sdmmc.c ****   uint32_t errorstate = SDMMC_ERROR_NONE;
 610:Drivers/STM32F4xx_HAL_Driver/Src/stm32f4xx_ll_sdmmc.c ****   
 611:Drivers/STM32F4xx_HAL_Driver/Src/stm32f4xx_ll_sdmmc.c ****   /* Set Block Size for Card */ 
 612:Drivers/STM32F4xx_HAL_Driver/Src/stm32f4xx_ll_sdmmc.c ****   sdmmc_cmdinit.Argument         = (uint32_t)WriteAdd;
 613:Drivers/STM32F4xx_HAL_Driver/Src/stm32f4xx_ll_sdmmc.c ****   sdmmc_cmdinit.CmdIndex         = SDMMC_CMD_WRITE_SINGLE_BLOCK;
 614:Drivers/STM32F4xx_HAL_Driver/Src/stm32f4xx_ll_sdmmc.c ****   sdmmc_cmdinit.Response         = SDIO_RESPONSE_SHORT;
 615:Drivers/STM32F4xx_HAL_Driver/Src/stm32f4xx_ll_sdmmc.c ****   sdmmc_cmdinit.WaitForInterrupt = SDIO_WAIT_NO;
 616:Drivers/STM32F4xx_HAL_Driver/Src/stm32f4xx_ll_sdmmc.c ****   sdmmc_cmdinit.CPSM             = SDIO_CPSM_ENABLE;
 617:Drivers/STM32F4xx_HAL_Driver/Src/stm32f4xx_ll_sdmmc.c ****   SDIO_SendCommand(SDIOx, &sdmmc_cmdinit);
 618:Drivers/STM32F4xx_HAL_Driver/Src/stm32f4xx_ll_sdmmc.c ****   
 619:Drivers/STM32F4xx_HAL_Driver/Src/stm32f4xx_ll_sdmmc.c ****   /* Check for error conditions */
 620:Drivers/STM32F4xx_HAL_Driver/Src/stm32f4xx_ll_sdmmc.c ****   errorstate = SDMMC_GetCmdResp1(SDIOx, SDMMC_CMD_WRITE_SINGLE_BLOCK, SDIO_CMDTIMEOUT);
 621:Drivers/STM32F4xx_HAL_Driver/Src/stm32f4xx_ll_sdmmc.c **** 
 622:Drivers/STM32F4xx_HAL_Driver/Src/stm32f4xx_ll_sdmmc.c ****   return errorstate;
 623:Drivers/STM32F4xx_HAL_Driver/Src/stm32f4xx_ll_sdmmc.c **** }
 624:Drivers/STM32F4xx_HAL_Driver/Src/stm32f4xx_ll_sdmmc.c **** 
 625:Drivers/STM32F4xx_HAL_Driver/Src/stm32f4xx_ll_sdmmc.c **** /**
 626:Drivers/STM32F4xx_HAL_Driver/Src/stm32f4xx_ll_sdmmc.c ****   * @brief  Send the Write Multi Block command and check the response
 627:Drivers/STM32F4xx_HAL_Driver/Src/stm32f4xx_ll_sdmmc.c ****   * @param  SDIOx Pointer to SDIO register base 
 628:Drivers/STM32F4xx_HAL_Driver/Src/stm32f4xx_ll_sdmmc.c ****   * @retval HAL status
 629:Drivers/STM32F4xx_HAL_Driver/Src/stm32f4xx_ll_sdmmc.c ****   */
 630:Drivers/STM32F4xx_HAL_Driver/Src/stm32f4xx_ll_sdmmc.c **** uint32_t SDMMC_CmdWriteMultiBlock(SDIO_TypeDef *SDIOx, uint32_t WriteAdd)
 631:Drivers/STM32F4xx_HAL_Driver/Src/stm32f4xx_ll_sdmmc.c **** {
 632:Drivers/STM32F4xx_HAL_Driver/Src/stm32f4xx_ll_sdmmc.c ****   SDIO_CmdInitTypeDef  sdmmc_cmdinit;
 633:Drivers/STM32F4xx_HAL_Driver/Src/stm32f4xx_ll_sdmmc.c ****   uint32_t errorstate = SDMMC_ERROR_NONE;
 634:Drivers/STM32F4xx_HAL_Driver/Src/stm32f4xx_ll_sdmmc.c ****   
 635:Drivers/STM32F4xx_HAL_Driver/Src/stm32f4xx_ll_sdmmc.c ****   /* Set Block Size for Card */ 
 636:Drivers/STM32F4xx_HAL_Driver/Src/stm32f4xx_ll_sdmmc.c ****   sdmmc_cmdinit.Argument         = (uint32_t)WriteAdd;
 637:Drivers/STM32F4xx_HAL_Driver/Src/stm32f4xx_ll_sdmmc.c ****   sdmmc_cmdinit.CmdIndex         = SDMMC_CMD_WRITE_MULT_BLOCK;
 638:Drivers/STM32F4xx_HAL_Driver/Src/stm32f4xx_ll_sdmmc.c ****   sdmmc_cmdinit.Response         = SDIO_RESPONSE_SHORT;
 639:Drivers/STM32F4xx_HAL_Driver/Src/stm32f4xx_ll_sdmmc.c ****   sdmmc_cmdinit.WaitForInterrupt = SDIO_WAIT_NO;
 640:Drivers/STM32F4xx_HAL_Driver/Src/stm32f4xx_ll_sdmmc.c ****   sdmmc_cmdinit.CPSM             = SDIO_CPSM_ENABLE;
 641:Drivers/STM32F4xx_HAL_Driver/Src/stm32f4xx_ll_sdmmc.c ****   SDIO_SendCommand(SDIOx, &sdmmc_cmdinit);
 642:Drivers/STM32F4xx_HAL_Driver/Src/stm32f4xx_ll_sdmmc.c ****   
 643:Drivers/STM32F4xx_HAL_Driver/Src/stm32f4xx_ll_sdmmc.c ****   /* Check for error conditions */
 644:Drivers/STM32F4xx_HAL_Driver/Src/stm32f4xx_ll_sdmmc.c ****   errorstate = SDMMC_GetCmdResp1(SDIOx, SDMMC_CMD_WRITE_MULT_BLOCK, SDIO_CMDTIMEOUT);
 645:Drivers/STM32F4xx_HAL_Driver/Src/stm32f4xx_ll_sdmmc.c **** 
 646:Drivers/STM32F4xx_HAL_Driver/Src/stm32f4xx_ll_sdmmc.c ****   return errorstate;
 647:Drivers/STM32F4xx_HAL_Driver/Src/stm32f4xx_ll_sdmmc.c **** }
 648:Drivers/STM32F4xx_HAL_Driver/Src/stm32f4xx_ll_sdmmc.c **** 
 649:Drivers/STM32F4xx_HAL_Driver/Src/stm32f4xx_ll_sdmmc.c **** /**
 650:Drivers/STM32F4xx_HAL_Driver/Src/stm32f4xx_ll_sdmmc.c ****   * @brief  Send the Start Address Erase command for SD and check the response
 651:Drivers/STM32F4xx_HAL_Driver/Src/stm32f4xx_ll_sdmmc.c ****   * @param  SDIOx Pointer to SDIO register base 
 652:Drivers/STM32F4xx_HAL_Driver/Src/stm32f4xx_ll_sdmmc.c ****   * @retval HAL status
 653:Drivers/STM32F4xx_HAL_Driver/Src/stm32f4xx_ll_sdmmc.c ****   */
 654:Drivers/STM32F4xx_HAL_Driver/Src/stm32f4xx_ll_sdmmc.c **** uint32_t SDMMC_CmdSDEraseStartAdd(SDIO_TypeDef *SDIOx, uint32_t StartAdd)
 655:Drivers/STM32F4xx_HAL_Driver/Src/stm32f4xx_ll_sdmmc.c **** {
 656:Drivers/STM32F4xx_HAL_Driver/Src/stm32f4xx_ll_sdmmc.c ****   SDIO_CmdInitTypeDef  sdmmc_cmdinit;
 657:Drivers/STM32F4xx_HAL_Driver/Src/stm32f4xx_ll_sdmmc.c ****   uint32_t errorstate = SDMMC_ERROR_NONE;
ARM GAS  /tmp/ccDCAHOp.s 			page 13


 658:Drivers/STM32F4xx_HAL_Driver/Src/stm32f4xx_ll_sdmmc.c ****   
 659:Drivers/STM32F4xx_HAL_Driver/Src/stm32f4xx_ll_sdmmc.c ****   /* Set Block Size for Card */ 
 660:Drivers/STM32F4xx_HAL_Driver/Src/stm32f4xx_ll_sdmmc.c ****   sdmmc_cmdinit.Argument         = (uint32_t)StartAdd;
 661:Drivers/STM32F4xx_HAL_Driver/Src/stm32f4xx_ll_sdmmc.c ****   sdmmc_cmdinit.CmdIndex         = SDMMC_CMD_SD_ERASE_GRP_START;
 662:Drivers/STM32F4xx_HAL_Driver/Src/stm32f4xx_ll_sdmmc.c ****   sdmmc_cmdinit.Response         = SDIO_RESPONSE_SHORT;
 663:Drivers/STM32F4xx_HAL_Driver/Src/stm32f4xx_ll_sdmmc.c ****   sdmmc_cmdinit.WaitForInterrupt = SDIO_WAIT_NO;
 664:Drivers/STM32F4xx_HAL_Driver/Src/stm32f4xx_ll_sdmmc.c ****   sdmmc_cmdinit.CPSM             = SDIO_CPSM_ENABLE;
 665:Drivers/STM32F4xx_HAL_Driver/Src/stm32f4xx_ll_sdmmc.c ****   SDIO_SendCommand(SDIOx, &sdmmc_cmdinit);
 666:Drivers/STM32F4xx_HAL_Driver/Src/stm32f4xx_ll_sdmmc.c ****   
 667:Drivers/STM32F4xx_HAL_Driver/Src/stm32f4xx_ll_sdmmc.c ****   /* Check for error conditions */
 668:Drivers/STM32F4xx_HAL_Driver/Src/stm32f4xx_ll_sdmmc.c ****   errorstate = SDMMC_GetCmdResp1(SDIOx, SDMMC_CMD_SD_ERASE_GRP_START, SDIO_CMDTIMEOUT);
 669:Drivers/STM32F4xx_HAL_Driver/Src/stm32f4xx_ll_sdmmc.c **** 
 670:Drivers/STM32F4xx_HAL_Driver/Src/stm32f4xx_ll_sdmmc.c ****   return errorstate;
 671:Drivers/STM32F4xx_HAL_Driver/Src/stm32f4xx_ll_sdmmc.c **** }
 672:Drivers/STM32F4xx_HAL_Driver/Src/stm32f4xx_ll_sdmmc.c **** 
 673:Drivers/STM32F4xx_HAL_Driver/Src/stm32f4xx_ll_sdmmc.c **** /**
 674:Drivers/STM32F4xx_HAL_Driver/Src/stm32f4xx_ll_sdmmc.c ****   * @brief  Send the End Address Erase command for SD and check the response
 675:Drivers/STM32F4xx_HAL_Driver/Src/stm32f4xx_ll_sdmmc.c ****   * @param  SDIOx Pointer to SDIO register base 
 676:Drivers/STM32F4xx_HAL_Driver/Src/stm32f4xx_ll_sdmmc.c ****   * @retval HAL status
 677:Drivers/STM32F4xx_HAL_Driver/Src/stm32f4xx_ll_sdmmc.c ****   */
 678:Drivers/STM32F4xx_HAL_Driver/Src/stm32f4xx_ll_sdmmc.c **** uint32_t SDMMC_CmdSDEraseEndAdd(SDIO_TypeDef *SDIOx, uint32_t EndAdd)
 679:Drivers/STM32F4xx_HAL_Driver/Src/stm32f4xx_ll_sdmmc.c **** {
 680:Drivers/STM32F4xx_HAL_Driver/Src/stm32f4xx_ll_sdmmc.c ****   SDIO_CmdInitTypeDef  sdmmc_cmdinit;
 681:Drivers/STM32F4xx_HAL_Driver/Src/stm32f4xx_ll_sdmmc.c ****   uint32_t errorstate = SDMMC_ERROR_NONE;
 682:Drivers/STM32F4xx_HAL_Driver/Src/stm32f4xx_ll_sdmmc.c ****   
 683:Drivers/STM32F4xx_HAL_Driver/Src/stm32f4xx_ll_sdmmc.c ****   /* Set Block Size for Card */ 
 684:Drivers/STM32F4xx_HAL_Driver/Src/stm32f4xx_ll_sdmmc.c ****   sdmmc_cmdinit.Argument         = (uint32_t)EndAdd;
 685:Drivers/STM32F4xx_HAL_Driver/Src/stm32f4xx_ll_sdmmc.c ****   sdmmc_cmdinit.CmdIndex         = SDMMC_CMD_SD_ERASE_GRP_END;
 686:Drivers/STM32F4xx_HAL_Driver/Src/stm32f4xx_ll_sdmmc.c ****   sdmmc_cmdinit.Response         = SDIO_RESPONSE_SHORT;
 687:Drivers/STM32F4xx_HAL_Driver/Src/stm32f4xx_ll_sdmmc.c ****   sdmmc_cmdinit.WaitForInterrupt = SDIO_WAIT_NO;
 688:Drivers/STM32F4xx_HAL_Driver/Src/stm32f4xx_ll_sdmmc.c ****   sdmmc_cmdinit.CPSM             = SDIO_CPSM_ENABLE;
 689:Drivers/STM32F4xx_HAL_Driver/Src/stm32f4xx_ll_sdmmc.c ****   SDIO_SendCommand(SDIOx, &sdmmc_cmdinit);
 690:Drivers/STM32F4xx_HAL_Driver/Src/stm32f4xx_ll_sdmmc.c ****   
 691:Drivers/STM32F4xx_HAL_Driver/Src/stm32f4xx_ll_sdmmc.c ****   /* Check for error conditions */
 692:Drivers/STM32F4xx_HAL_Driver/Src/stm32f4xx_ll_sdmmc.c ****   errorstate = SDMMC_GetCmdResp1(SDIOx, SDMMC_CMD_SD_ERASE_GRP_END, SDIO_CMDTIMEOUT);
 693:Drivers/STM32F4xx_HAL_Driver/Src/stm32f4xx_ll_sdmmc.c **** 
 694:Drivers/STM32F4xx_HAL_Driver/Src/stm32f4xx_ll_sdmmc.c ****   return errorstate;
 695:Drivers/STM32F4xx_HAL_Driver/Src/stm32f4xx_ll_sdmmc.c **** }
 696:Drivers/STM32F4xx_HAL_Driver/Src/stm32f4xx_ll_sdmmc.c **** 
 697:Drivers/STM32F4xx_HAL_Driver/Src/stm32f4xx_ll_sdmmc.c **** /**
 698:Drivers/STM32F4xx_HAL_Driver/Src/stm32f4xx_ll_sdmmc.c ****   * @brief  Send the Start Address Erase command and check the response
 699:Drivers/STM32F4xx_HAL_Driver/Src/stm32f4xx_ll_sdmmc.c ****   * @param  SDIOx Pointer to SDIO register base 
 700:Drivers/STM32F4xx_HAL_Driver/Src/stm32f4xx_ll_sdmmc.c ****   * @retval HAL status
 701:Drivers/STM32F4xx_HAL_Driver/Src/stm32f4xx_ll_sdmmc.c ****   */
 702:Drivers/STM32F4xx_HAL_Driver/Src/stm32f4xx_ll_sdmmc.c **** uint32_t SDMMC_CmdEraseStartAdd(SDIO_TypeDef *SDIOx, uint32_t StartAdd)
 703:Drivers/STM32F4xx_HAL_Driver/Src/stm32f4xx_ll_sdmmc.c **** {
 704:Drivers/STM32F4xx_HAL_Driver/Src/stm32f4xx_ll_sdmmc.c ****   SDIO_CmdInitTypeDef  sdmmc_cmdinit;
 705:Drivers/STM32F4xx_HAL_Driver/Src/stm32f4xx_ll_sdmmc.c ****   uint32_t errorstate = SDMMC_ERROR_NONE;
 706:Drivers/STM32F4xx_HAL_Driver/Src/stm32f4xx_ll_sdmmc.c ****   
 707:Drivers/STM32F4xx_HAL_Driver/Src/stm32f4xx_ll_sdmmc.c ****   /* Set Block Size for Card */ 
 708:Drivers/STM32F4xx_HAL_Driver/Src/stm32f4xx_ll_sdmmc.c ****   sdmmc_cmdinit.Argument         = (uint32_t)StartAdd;
 709:Drivers/STM32F4xx_HAL_Driver/Src/stm32f4xx_ll_sdmmc.c ****   sdmmc_cmdinit.CmdIndex         = SDMMC_CMD_ERASE_GRP_START;
 710:Drivers/STM32F4xx_HAL_Driver/Src/stm32f4xx_ll_sdmmc.c ****   sdmmc_cmdinit.Response         = SDIO_RESPONSE_SHORT;
 711:Drivers/STM32F4xx_HAL_Driver/Src/stm32f4xx_ll_sdmmc.c ****   sdmmc_cmdinit.WaitForInterrupt = SDIO_WAIT_NO;
 712:Drivers/STM32F4xx_HAL_Driver/Src/stm32f4xx_ll_sdmmc.c ****   sdmmc_cmdinit.CPSM             = SDIO_CPSM_ENABLE;
 713:Drivers/STM32F4xx_HAL_Driver/Src/stm32f4xx_ll_sdmmc.c ****   SDIO_SendCommand(SDIOx, &sdmmc_cmdinit);
 714:Drivers/STM32F4xx_HAL_Driver/Src/stm32f4xx_ll_sdmmc.c ****   
ARM GAS  /tmp/ccDCAHOp.s 			page 14


 715:Drivers/STM32F4xx_HAL_Driver/Src/stm32f4xx_ll_sdmmc.c ****   /* Check for error conditions */
 716:Drivers/STM32F4xx_HAL_Driver/Src/stm32f4xx_ll_sdmmc.c ****   errorstate = SDMMC_GetCmdResp1(SDIOx, SDMMC_CMD_ERASE_GRP_START, SDIO_CMDTIMEOUT);
 717:Drivers/STM32F4xx_HAL_Driver/Src/stm32f4xx_ll_sdmmc.c **** 
 718:Drivers/STM32F4xx_HAL_Driver/Src/stm32f4xx_ll_sdmmc.c ****   return errorstate;
 719:Drivers/STM32F4xx_HAL_Driver/Src/stm32f4xx_ll_sdmmc.c **** }
 720:Drivers/STM32F4xx_HAL_Driver/Src/stm32f4xx_ll_sdmmc.c **** 
 721:Drivers/STM32F4xx_HAL_Driver/Src/stm32f4xx_ll_sdmmc.c **** /**
 722:Drivers/STM32F4xx_HAL_Driver/Src/stm32f4xx_ll_sdmmc.c ****   * @brief  Send the End Address Erase command and check the response
 723:Drivers/STM32F4xx_HAL_Driver/Src/stm32f4xx_ll_sdmmc.c ****   * @param  SDIOx Pointer to SDIO register base 
 724:Drivers/STM32F4xx_HAL_Driver/Src/stm32f4xx_ll_sdmmc.c ****   * @retval HAL status
 725:Drivers/STM32F4xx_HAL_Driver/Src/stm32f4xx_ll_sdmmc.c ****   */
 726:Drivers/STM32F4xx_HAL_Driver/Src/stm32f4xx_ll_sdmmc.c **** uint32_t SDMMC_CmdEraseEndAdd(SDIO_TypeDef *SDIOx, uint32_t EndAdd)
 727:Drivers/STM32F4xx_HAL_Driver/Src/stm32f4xx_ll_sdmmc.c **** {
 728:Drivers/STM32F4xx_HAL_Driver/Src/stm32f4xx_ll_sdmmc.c ****   SDIO_CmdInitTypeDef  sdmmc_cmdinit;
 729:Drivers/STM32F4xx_HAL_Driver/Src/stm32f4xx_ll_sdmmc.c ****   uint32_t errorstate = SDMMC_ERROR_NONE;
 730:Drivers/STM32F4xx_HAL_Driver/Src/stm32f4xx_ll_sdmmc.c ****   
 731:Drivers/STM32F4xx_HAL_Driver/Src/stm32f4xx_ll_sdmmc.c ****   /* Set Block Size for Card */ 
 732:Drivers/STM32F4xx_HAL_Driver/Src/stm32f4xx_ll_sdmmc.c ****   sdmmc_cmdinit.Argument         = (uint32_t)EndAdd;
 733:Drivers/STM32F4xx_HAL_Driver/Src/stm32f4xx_ll_sdmmc.c ****   sdmmc_cmdinit.CmdIndex         = SDMMC_CMD_ERASE_GRP_END;
 734:Drivers/STM32F4xx_HAL_Driver/Src/stm32f4xx_ll_sdmmc.c ****   sdmmc_cmdinit.Response         = SDIO_RESPONSE_SHORT;
 735:Drivers/STM32F4xx_HAL_Driver/Src/stm32f4xx_ll_sdmmc.c ****   sdmmc_cmdinit.WaitForInterrupt = SDIO_WAIT_NO;
 736:Drivers/STM32F4xx_HAL_Driver/Src/stm32f4xx_ll_sdmmc.c ****   sdmmc_cmdinit.CPSM             = SDIO_CPSM_ENABLE;
 737:Drivers/STM32F4xx_HAL_Driver/Src/stm32f4xx_ll_sdmmc.c ****   SDIO_SendCommand(SDIOx, &sdmmc_cmdinit);
 738:Drivers/STM32F4xx_HAL_Driver/Src/stm32f4xx_ll_sdmmc.c ****   
 739:Drivers/STM32F4xx_HAL_Driver/Src/stm32f4xx_ll_sdmmc.c ****   /* Check for error conditions */
 740:Drivers/STM32F4xx_HAL_Driver/Src/stm32f4xx_ll_sdmmc.c ****   errorstate = SDMMC_GetCmdResp1(SDIOx, SDMMC_CMD_ERASE_GRP_END, SDIO_CMDTIMEOUT);
 741:Drivers/STM32F4xx_HAL_Driver/Src/stm32f4xx_ll_sdmmc.c **** 
 742:Drivers/STM32F4xx_HAL_Driver/Src/stm32f4xx_ll_sdmmc.c ****   return errorstate;
 743:Drivers/STM32F4xx_HAL_Driver/Src/stm32f4xx_ll_sdmmc.c **** }
 744:Drivers/STM32F4xx_HAL_Driver/Src/stm32f4xx_ll_sdmmc.c **** 
 745:Drivers/STM32F4xx_HAL_Driver/Src/stm32f4xx_ll_sdmmc.c **** /**
 746:Drivers/STM32F4xx_HAL_Driver/Src/stm32f4xx_ll_sdmmc.c ****   * @brief  Send the Erase command and check the response
 747:Drivers/STM32F4xx_HAL_Driver/Src/stm32f4xx_ll_sdmmc.c ****   * @param  SDIOx Pointer to SDIO register base 
 748:Drivers/STM32F4xx_HAL_Driver/Src/stm32f4xx_ll_sdmmc.c ****   * @retval HAL status
 749:Drivers/STM32F4xx_HAL_Driver/Src/stm32f4xx_ll_sdmmc.c ****   */
 750:Drivers/STM32F4xx_HAL_Driver/Src/stm32f4xx_ll_sdmmc.c **** uint32_t SDMMC_CmdErase(SDIO_TypeDef *SDIOx)
 751:Drivers/STM32F4xx_HAL_Driver/Src/stm32f4xx_ll_sdmmc.c **** {
 752:Drivers/STM32F4xx_HAL_Driver/Src/stm32f4xx_ll_sdmmc.c ****   SDIO_CmdInitTypeDef  sdmmc_cmdinit;
 753:Drivers/STM32F4xx_HAL_Driver/Src/stm32f4xx_ll_sdmmc.c ****   uint32_t errorstate = SDMMC_ERROR_NONE;
 754:Drivers/STM32F4xx_HAL_Driver/Src/stm32f4xx_ll_sdmmc.c ****   
 755:Drivers/STM32F4xx_HAL_Driver/Src/stm32f4xx_ll_sdmmc.c ****   /* Set Block Size for Card */ 
 756:Drivers/STM32F4xx_HAL_Driver/Src/stm32f4xx_ll_sdmmc.c ****   sdmmc_cmdinit.Argument         = 0U;
 757:Drivers/STM32F4xx_HAL_Driver/Src/stm32f4xx_ll_sdmmc.c ****   sdmmc_cmdinit.CmdIndex         = SDMMC_CMD_ERASE;
 758:Drivers/STM32F4xx_HAL_Driver/Src/stm32f4xx_ll_sdmmc.c ****   sdmmc_cmdinit.Response         = SDIO_RESPONSE_SHORT;
 759:Drivers/STM32F4xx_HAL_Driver/Src/stm32f4xx_ll_sdmmc.c ****   sdmmc_cmdinit.WaitForInterrupt = SDIO_WAIT_NO;
 760:Drivers/STM32F4xx_HAL_Driver/Src/stm32f4xx_ll_sdmmc.c ****   sdmmc_cmdinit.CPSM             = SDIO_CPSM_ENABLE;
 761:Drivers/STM32F4xx_HAL_Driver/Src/stm32f4xx_ll_sdmmc.c ****   SDIO_SendCommand(SDIOx, &sdmmc_cmdinit);
 762:Drivers/STM32F4xx_HAL_Driver/Src/stm32f4xx_ll_sdmmc.c ****   
 763:Drivers/STM32F4xx_HAL_Driver/Src/stm32f4xx_ll_sdmmc.c ****   /* Check for error conditions */
 764:Drivers/STM32F4xx_HAL_Driver/Src/stm32f4xx_ll_sdmmc.c ****   errorstate = SDMMC_GetCmdResp1(SDIOx, SDMMC_CMD_ERASE, SDIO_MAXERASETIMEOUT);
 765:Drivers/STM32F4xx_HAL_Driver/Src/stm32f4xx_ll_sdmmc.c **** 
 766:Drivers/STM32F4xx_HAL_Driver/Src/stm32f4xx_ll_sdmmc.c ****   return errorstate;
 767:Drivers/STM32F4xx_HAL_Driver/Src/stm32f4xx_ll_sdmmc.c **** }
 768:Drivers/STM32F4xx_HAL_Driver/Src/stm32f4xx_ll_sdmmc.c **** 
 769:Drivers/STM32F4xx_HAL_Driver/Src/stm32f4xx_ll_sdmmc.c **** /**
 770:Drivers/STM32F4xx_HAL_Driver/Src/stm32f4xx_ll_sdmmc.c ****   * @brief  Send the Stop Transfer command and check the response.
 771:Drivers/STM32F4xx_HAL_Driver/Src/stm32f4xx_ll_sdmmc.c ****   * @param  SDIOx Pointer to SDIO register base 
ARM GAS  /tmp/ccDCAHOp.s 			page 15


 772:Drivers/STM32F4xx_HAL_Driver/Src/stm32f4xx_ll_sdmmc.c ****   * @retval HAL status
 773:Drivers/STM32F4xx_HAL_Driver/Src/stm32f4xx_ll_sdmmc.c ****   */
 774:Drivers/STM32F4xx_HAL_Driver/Src/stm32f4xx_ll_sdmmc.c **** uint32_t SDMMC_CmdStopTransfer(SDIO_TypeDef *SDIOx)
 775:Drivers/STM32F4xx_HAL_Driver/Src/stm32f4xx_ll_sdmmc.c **** {
 776:Drivers/STM32F4xx_HAL_Driver/Src/stm32f4xx_ll_sdmmc.c ****   SDIO_CmdInitTypeDef  sdmmc_cmdinit;
 777:Drivers/STM32F4xx_HAL_Driver/Src/stm32f4xx_ll_sdmmc.c ****   uint32_t errorstate = SDMMC_ERROR_NONE;
 778:Drivers/STM32F4xx_HAL_Driver/Src/stm32f4xx_ll_sdmmc.c ****   
 779:Drivers/STM32F4xx_HAL_Driver/Src/stm32f4xx_ll_sdmmc.c ****   /* Send CMD12 STOP_TRANSMISSION  */
 780:Drivers/STM32F4xx_HAL_Driver/Src/stm32f4xx_ll_sdmmc.c ****   sdmmc_cmdinit.Argument         = 0U;
 781:Drivers/STM32F4xx_HAL_Driver/Src/stm32f4xx_ll_sdmmc.c ****   sdmmc_cmdinit.CmdIndex         = SDMMC_CMD_STOP_TRANSMISSION;
 782:Drivers/STM32F4xx_HAL_Driver/Src/stm32f4xx_ll_sdmmc.c ****   sdmmc_cmdinit.Response         = SDIO_RESPONSE_SHORT;
 783:Drivers/STM32F4xx_HAL_Driver/Src/stm32f4xx_ll_sdmmc.c ****   sdmmc_cmdinit.WaitForInterrupt = SDIO_WAIT_NO;
 784:Drivers/STM32F4xx_HAL_Driver/Src/stm32f4xx_ll_sdmmc.c ****   sdmmc_cmdinit.CPSM             = SDIO_CPSM_ENABLE;
 785:Drivers/STM32F4xx_HAL_Driver/Src/stm32f4xx_ll_sdmmc.c ****   SDIO_SendCommand(SDIOx, &sdmmc_cmdinit);
 786:Drivers/STM32F4xx_HAL_Driver/Src/stm32f4xx_ll_sdmmc.c ****   
 787:Drivers/STM32F4xx_HAL_Driver/Src/stm32f4xx_ll_sdmmc.c ****   /* Check for error conditions */
 788:Drivers/STM32F4xx_HAL_Driver/Src/stm32f4xx_ll_sdmmc.c ****   errorstate = SDMMC_GetCmdResp1(SDIOx, SDMMC_CMD_STOP_TRANSMISSION, 100000000U);
 789:Drivers/STM32F4xx_HAL_Driver/Src/stm32f4xx_ll_sdmmc.c **** 
 790:Drivers/STM32F4xx_HAL_Driver/Src/stm32f4xx_ll_sdmmc.c ****   return errorstate;
 791:Drivers/STM32F4xx_HAL_Driver/Src/stm32f4xx_ll_sdmmc.c **** }
 792:Drivers/STM32F4xx_HAL_Driver/Src/stm32f4xx_ll_sdmmc.c **** 
 793:Drivers/STM32F4xx_HAL_Driver/Src/stm32f4xx_ll_sdmmc.c **** /**
 794:Drivers/STM32F4xx_HAL_Driver/Src/stm32f4xx_ll_sdmmc.c ****   * @brief  Send the Select Deselect command and check the response.
 795:Drivers/STM32F4xx_HAL_Driver/Src/stm32f4xx_ll_sdmmc.c ****   * @param  SDIOx Pointer to SDIO register base 
 796:Drivers/STM32F4xx_HAL_Driver/Src/stm32f4xx_ll_sdmmc.c ****   * @param  addr Address of the card to be selected  
 797:Drivers/STM32F4xx_HAL_Driver/Src/stm32f4xx_ll_sdmmc.c ****   * @retval HAL status
 798:Drivers/STM32F4xx_HAL_Driver/Src/stm32f4xx_ll_sdmmc.c ****   */
 799:Drivers/STM32F4xx_HAL_Driver/Src/stm32f4xx_ll_sdmmc.c **** uint32_t SDMMC_CmdSelDesel(SDIO_TypeDef *SDIOx, uint64_t Addr)
 800:Drivers/STM32F4xx_HAL_Driver/Src/stm32f4xx_ll_sdmmc.c **** {
 801:Drivers/STM32F4xx_HAL_Driver/Src/stm32f4xx_ll_sdmmc.c ****   SDIO_CmdInitTypeDef  sdmmc_cmdinit;
 802:Drivers/STM32F4xx_HAL_Driver/Src/stm32f4xx_ll_sdmmc.c ****   uint32_t errorstate = SDMMC_ERROR_NONE;
 803:Drivers/STM32F4xx_HAL_Driver/Src/stm32f4xx_ll_sdmmc.c ****   
 804:Drivers/STM32F4xx_HAL_Driver/Src/stm32f4xx_ll_sdmmc.c ****   /* Send CMD7 SDMMC_SEL_DESEL_CARD */
 805:Drivers/STM32F4xx_HAL_Driver/Src/stm32f4xx_ll_sdmmc.c ****   sdmmc_cmdinit.Argument         = (uint32_t)Addr;
 806:Drivers/STM32F4xx_HAL_Driver/Src/stm32f4xx_ll_sdmmc.c ****   sdmmc_cmdinit.CmdIndex         = SDMMC_CMD_SEL_DESEL_CARD;
 807:Drivers/STM32F4xx_HAL_Driver/Src/stm32f4xx_ll_sdmmc.c ****   sdmmc_cmdinit.Response         = SDIO_RESPONSE_SHORT;
 808:Drivers/STM32F4xx_HAL_Driver/Src/stm32f4xx_ll_sdmmc.c ****   sdmmc_cmdinit.WaitForInterrupt = SDIO_WAIT_NO;
 809:Drivers/STM32F4xx_HAL_Driver/Src/stm32f4xx_ll_sdmmc.c ****   sdmmc_cmdinit.CPSM             = SDIO_CPSM_ENABLE;
 810:Drivers/STM32F4xx_HAL_Driver/Src/stm32f4xx_ll_sdmmc.c ****   SDIO_SendCommand(SDIOx, &sdmmc_cmdinit);
 811:Drivers/STM32F4xx_HAL_Driver/Src/stm32f4xx_ll_sdmmc.c ****   
 812:Drivers/STM32F4xx_HAL_Driver/Src/stm32f4xx_ll_sdmmc.c ****   /* Check for error conditions */
 813:Drivers/STM32F4xx_HAL_Driver/Src/stm32f4xx_ll_sdmmc.c ****   errorstate = SDMMC_GetCmdResp1(SDIOx, SDMMC_CMD_SEL_DESEL_CARD, SDIO_CMDTIMEOUT);
 814:Drivers/STM32F4xx_HAL_Driver/Src/stm32f4xx_ll_sdmmc.c **** 
 815:Drivers/STM32F4xx_HAL_Driver/Src/stm32f4xx_ll_sdmmc.c ****   return errorstate;
 816:Drivers/STM32F4xx_HAL_Driver/Src/stm32f4xx_ll_sdmmc.c **** }
 817:Drivers/STM32F4xx_HAL_Driver/Src/stm32f4xx_ll_sdmmc.c **** 
 818:Drivers/STM32F4xx_HAL_Driver/Src/stm32f4xx_ll_sdmmc.c **** /**
 819:Drivers/STM32F4xx_HAL_Driver/Src/stm32f4xx_ll_sdmmc.c ****   * @brief  Send the Go Idle State command and check the response.
 820:Drivers/STM32F4xx_HAL_Driver/Src/stm32f4xx_ll_sdmmc.c ****   * @param  SDIOx Pointer to SDIO register base 
 821:Drivers/STM32F4xx_HAL_Driver/Src/stm32f4xx_ll_sdmmc.c ****   * @retval HAL status
 822:Drivers/STM32F4xx_HAL_Driver/Src/stm32f4xx_ll_sdmmc.c ****   */
 823:Drivers/STM32F4xx_HAL_Driver/Src/stm32f4xx_ll_sdmmc.c **** uint32_t SDMMC_CmdGoIdleState(SDIO_TypeDef *SDIOx)
 824:Drivers/STM32F4xx_HAL_Driver/Src/stm32f4xx_ll_sdmmc.c **** {
 825:Drivers/STM32F4xx_HAL_Driver/Src/stm32f4xx_ll_sdmmc.c ****   SDIO_CmdInitTypeDef  sdmmc_cmdinit;
 826:Drivers/STM32F4xx_HAL_Driver/Src/stm32f4xx_ll_sdmmc.c ****   uint32_t errorstate = SDMMC_ERROR_NONE;
 827:Drivers/STM32F4xx_HAL_Driver/Src/stm32f4xx_ll_sdmmc.c ****   
 828:Drivers/STM32F4xx_HAL_Driver/Src/stm32f4xx_ll_sdmmc.c ****   sdmmc_cmdinit.Argument         = 0U;
ARM GAS  /tmp/ccDCAHOp.s 			page 16


 829:Drivers/STM32F4xx_HAL_Driver/Src/stm32f4xx_ll_sdmmc.c ****   sdmmc_cmdinit.CmdIndex         = SDMMC_CMD_GO_IDLE_STATE;
 830:Drivers/STM32F4xx_HAL_Driver/Src/stm32f4xx_ll_sdmmc.c ****   sdmmc_cmdinit.Response         = SDIO_RESPONSE_NO;
 831:Drivers/STM32F4xx_HAL_Driver/Src/stm32f4xx_ll_sdmmc.c ****   sdmmc_cmdinit.WaitForInterrupt = SDIO_WAIT_NO;
 832:Drivers/STM32F4xx_HAL_Driver/Src/stm32f4xx_ll_sdmmc.c ****   sdmmc_cmdinit.CPSM             = SDIO_CPSM_ENABLE;
 833:Drivers/STM32F4xx_HAL_Driver/Src/stm32f4xx_ll_sdmmc.c ****   SDIO_SendCommand(SDIOx, &sdmmc_cmdinit);
 834:Drivers/STM32F4xx_HAL_Driver/Src/stm32f4xx_ll_sdmmc.c ****   
 835:Drivers/STM32F4xx_HAL_Driver/Src/stm32f4xx_ll_sdmmc.c ****   /* Check for error conditions */
 836:Drivers/STM32F4xx_HAL_Driver/Src/stm32f4xx_ll_sdmmc.c ****   errorstate = SDMMC_GetCmdError(SDIOx);
 837:Drivers/STM32F4xx_HAL_Driver/Src/stm32f4xx_ll_sdmmc.c **** 
 838:Drivers/STM32F4xx_HAL_Driver/Src/stm32f4xx_ll_sdmmc.c ****   return errorstate;
 839:Drivers/STM32F4xx_HAL_Driver/Src/stm32f4xx_ll_sdmmc.c **** }
 840:Drivers/STM32F4xx_HAL_Driver/Src/stm32f4xx_ll_sdmmc.c **** 
 841:Drivers/STM32F4xx_HAL_Driver/Src/stm32f4xx_ll_sdmmc.c **** /**
 842:Drivers/STM32F4xx_HAL_Driver/Src/stm32f4xx_ll_sdmmc.c ****   * @brief  Send the Operating Condition command and check the response.
 843:Drivers/STM32F4xx_HAL_Driver/Src/stm32f4xx_ll_sdmmc.c ****   * @param  SDIOx Pointer to SDIO register base 
 844:Drivers/STM32F4xx_HAL_Driver/Src/stm32f4xx_ll_sdmmc.c ****   * @retval HAL status
 845:Drivers/STM32F4xx_HAL_Driver/Src/stm32f4xx_ll_sdmmc.c ****   */
 846:Drivers/STM32F4xx_HAL_Driver/Src/stm32f4xx_ll_sdmmc.c **** uint32_t SDMMC_CmdOperCond(SDIO_TypeDef *SDIOx)
 847:Drivers/STM32F4xx_HAL_Driver/Src/stm32f4xx_ll_sdmmc.c **** {
 848:Drivers/STM32F4xx_HAL_Driver/Src/stm32f4xx_ll_sdmmc.c ****   SDIO_CmdInitTypeDef  sdmmc_cmdinit;
 849:Drivers/STM32F4xx_HAL_Driver/Src/stm32f4xx_ll_sdmmc.c ****   uint32_t errorstate = SDMMC_ERROR_NONE;
 850:Drivers/STM32F4xx_HAL_Driver/Src/stm32f4xx_ll_sdmmc.c ****   
 851:Drivers/STM32F4xx_HAL_Driver/Src/stm32f4xx_ll_sdmmc.c ****   /* Send CMD8 to verify SD card interface operating condition */
 852:Drivers/STM32F4xx_HAL_Driver/Src/stm32f4xx_ll_sdmmc.c ****   /* Argument: - [31:12]: Reserved (shall be set to '0')
 853:Drivers/STM32F4xx_HAL_Driver/Src/stm32f4xx_ll_sdmmc.c ****   - [11:8]: Supply Voltage (VHS) 0x1 (Range: 2.7-3.6 V)
 854:Drivers/STM32F4xx_HAL_Driver/Src/stm32f4xx_ll_sdmmc.c ****   - [7:0]: Check Pattern (recommended 0xAA) */
 855:Drivers/STM32F4xx_HAL_Driver/Src/stm32f4xx_ll_sdmmc.c ****   /* CMD Response: R7 */
 856:Drivers/STM32F4xx_HAL_Driver/Src/stm32f4xx_ll_sdmmc.c ****   sdmmc_cmdinit.Argument         = SDMMC_CHECK_PATTERN;
 857:Drivers/STM32F4xx_HAL_Driver/Src/stm32f4xx_ll_sdmmc.c ****   sdmmc_cmdinit.CmdIndex         = SDMMC_CMD_HS_SEND_EXT_CSD;
 858:Drivers/STM32F4xx_HAL_Driver/Src/stm32f4xx_ll_sdmmc.c ****   sdmmc_cmdinit.Response         = SDIO_RESPONSE_SHORT;
 859:Drivers/STM32F4xx_HAL_Driver/Src/stm32f4xx_ll_sdmmc.c ****   sdmmc_cmdinit.WaitForInterrupt = SDIO_WAIT_NO;
 860:Drivers/STM32F4xx_HAL_Driver/Src/stm32f4xx_ll_sdmmc.c ****   sdmmc_cmdinit.CPSM             = SDIO_CPSM_ENABLE;
 861:Drivers/STM32F4xx_HAL_Driver/Src/stm32f4xx_ll_sdmmc.c ****   SDIO_SendCommand(SDIOx, &sdmmc_cmdinit);
 862:Drivers/STM32F4xx_HAL_Driver/Src/stm32f4xx_ll_sdmmc.c ****   
 863:Drivers/STM32F4xx_HAL_Driver/Src/stm32f4xx_ll_sdmmc.c ****   /* Check for error conditions */
 864:Drivers/STM32F4xx_HAL_Driver/Src/stm32f4xx_ll_sdmmc.c ****   errorstate = SDMMC_GetCmdResp7(SDIOx);
 865:Drivers/STM32F4xx_HAL_Driver/Src/stm32f4xx_ll_sdmmc.c **** 
 866:Drivers/STM32F4xx_HAL_Driver/Src/stm32f4xx_ll_sdmmc.c ****   return errorstate;
 867:Drivers/STM32F4xx_HAL_Driver/Src/stm32f4xx_ll_sdmmc.c **** }
 868:Drivers/STM32F4xx_HAL_Driver/Src/stm32f4xx_ll_sdmmc.c **** 
 869:Drivers/STM32F4xx_HAL_Driver/Src/stm32f4xx_ll_sdmmc.c **** /**
 870:Drivers/STM32F4xx_HAL_Driver/Src/stm32f4xx_ll_sdmmc.c ****   * @brief  Send the Application command to verify that that the next command 
 871:Drivers/STM32F4xx_HAL_Driver/Src/stm32f4xx_ll_sdmmc.c ****   *         is an application specific com-mand rather than a standard command
 872:Drivers/STM32F4xx_HAL_Driver/Src/stm32f4xx_ll_sdmmc.c ****   *         and check the response.
 873:Drivers/STM32F4xx_HAL_Driver/Src/stm32f4xx_ll_sdmmc.c ****   * @param  SDIOx Pointer to SDIO register base 
 874:Drivers/STM32F4xx_HAL_Driver/Src/stm32f4xx_ll_sdmmc.c ****   * @retval HAL status
 875:Drivers/STM32F4xx_HAL_Driver/Src/stm32f4xx_ll_sdmmc.c ****   */
 876:Drivers/STM32F4xx_HAL_Driver/Src/stm32f4xx_ll_sdmmc.c **** uint32_t SDMMC_CmdAppCommand(SDIO_TypeDef *SDIOx, uint32_t Argument)
 877:Drivers/STM32F4xx_HAL_Driver/Src/stm32f4xx_ll_sdmmc.c **** {
 878:Drivers/STM32F4xx_HAL_Driver/Src/stm32f4xx_ll_sdmmc.c ****   SDIO_CmdInitTypeDef  sdmmc_cmdinit;
 879:Drivers/STM32F4xx_HAL_Driver/Src/stm32f4xx_ll_sdmmc.c ****   uint32_t errorstate = SDMMC_ERROR_NONE;
 880:Drivers/STM32F4xx_HAL_Driver/Src/stm32f4xx_ll_sdmmc.c ****   
 881:Drivers/STM32F4xx_HAL_Driver/Src/stm32f4xx_ll_sdmmc.c ****   sdmmc_cmdinit.Argument         = (uint32_t)Argument;
 882:Drivers/STM32F4xx_HAL_Driver/Src/stm32f4xx_ll_sdmmc.c ****   sdmmc_cmdinit.CmdIndex         = SDMMC_CMD_APP_CMD;
 883:Drivers/STM32F4xx_HAL_Driver/Src/stm32f4xx_ll_sdmmc.c ****   sdmmc_cmdinit.Response         = SDIO_RESPONSE_SHORT;
 884:Drivers/STM32F4xx_HAL_Driver/Src/stm32f4xx_ll_sdmmc.c ****   sdmmc_cmdinit.WaitForInterrupt = SDIO_WAIT_NO;
 885:Drivers/STM32F4xx_HAL_Driver/Src/stm32f4xx_ll_sdmmc.c ****   sdmmc_cmdinit.CPSM             = SDIO_CPSM_ENABLE;
ARM GAS  /tmp/ccDCAHOp.s 			page 17


 886:Drivers/STM32F4xx_HAL_Driver/Src/stm32f4xx_ll_sdmmc.c ****   SDIO_SendCommand(SDIOx, &sdmmc_cmdinit);
 887:Drivers/STM32F4xx_HAL_Driver/Src/stm32f4xx_ll_sdmmc.c ****   
 888:Drivers/STM32F4xx_HAL_Driver/Src/stm32f4xx_ll_sdmmc.c ****   /* Check for error conditions */
 889:Drivers/STM32F4xx_HAL_Driver/Src/stm32f4xx_ll_sdmmc.c ****   /* If there is a HAL_ERROR, it is a MMC card, else
 890:Drivers/STM32F4xx_HAL_Driver/Src/stm32f4xx_ll_sdmmc.c ****   it is a SD card: SD card 2.0 (voltage range mismatch)
 891:Drivers/STM32F4xx_HAL_Driver/Src/stm32f4xx_ll_sdmmc.c ****      or SD card 1.x */
 892:Drivers/STM32F4xx_HAL_Driver/Src/stm32f4xx_ll_sdmmc.c ****   errorstate = SDMMC_GetCmdResp1(SDIOx, SDMMC_CMD_APP_CMD, SDIO_CMDTIMEOUT);
 893:Drivers/STM32F4xx_HAL_Driver/Src/stm32f4xx_ll_sdmmc.c **** 
 894:Drivers/STM32F4xx_HAL_Driver/Src/stm32f4xx_ll_sdmmc.c ****   return errorstate;
 895:Drivers/STM32F4xx_HAL_Driver/Src/stm32f4xx_ll_sdmmc.c **** }
 896:Drivers/STM32F4xx_HAL_Driver/Src/stm32f4xx_ll_sdmmc.c **** 
 897:Drivers/STM32F4xx_HAL_Driver/Src/stm32f4xx_ll_sdmmc.c **** /**
 898:Drivers/STM32F4xx_HAL_Driver/Src/stm32f4xx_ll_sdmmc.c ****   * @brief  Send the command asking the accessed card to send its operating 
 899:Drivers/STM32F4xx_HAL_Driver/Src/stm32f4xx_ll_sdmmc.c ****   *         condition register (OCR)
 900:Drivers/STM32F4xx_HAL_Driver/Src/stm32f4xx_ll_sdmmc.c ****   * @param  SDIOx Pointer to SDIO register base 
 901:Drivers/STM32F4xx_HAL_Driver/Src/stm32f4xx_ll_sdmmc.c ****   * @retval HAL status
 902:Drivers/STM32F4xx_HAL_Driver/Src/stm32f4xx_ll_sdmmc.c ****   */
 903:Drivers/STM32F4xx_HAL_Driver/Src/stm32f4xx_ll_sdmmc.c **** uint32_t SDMMC_CmdAppOperCommand(SDIO_TypeDef *SDIOx, uint32_t SdType)
 904:Drivers/STM32F4xx_HAL_Driver/Src/stm32f4xx_ll_sdmmc.c **** {
 905:Drivers/STM32F4xx_HAL_Driver/Src/stm32f4xx_ll_sdmmc.c ****   SDIO_CmdInitTypeDef  sdmmc_cmdinit;
 906:Drivers/STM32F4xx_HAL_Driver/Src/stm32f4xx_ll_sdmmc.c ****   uint32_t errorstate = SDMMC_ERROR_NONE;
 907:Drivers/STM32F4xx_HAL_Driver/Src/stm32f4xx_ll_sdmmc.c ****   
 908:Drivers/STM32F4xx_HAL_Driver/Src/stm32f4xx_ll_sdmmc.c ****   sdmmc_cmdinit.Argument         = SDMMC_VOLTAGE_WINDOW_SD | SdType;
 909:Drivers/STM32F4xx_HAL_Driver/Src/stm32f4xx_ll_sdmmc.c ****   sdmmc_cmdinit.CmdIndex         = SDMMC_CMD_SD_APP_OP_COND;
 910:Drivers/STM32F4xx_HAL_Driver/Src/stm32f4xx_ll_sdmmc.c ****   sdmmc_cmdinit.Response         = SDIO_RESPONSE_SHORT;
 911:Drivers/STM32F4xx_HAL_Driver/Src/stm32f4xx_ll_sdmmc.c ****   sdmmc_cmdinit.WaitForInterrupt = SDIO_WAIT_NO;
 912:Drivers/STM32F4xx_HAL_Driver/Src/stm32f4xx_ll_sdmmc.c ****   sdmmc_cmdinit.CPSM             = SDIO_CPSM_ENABLE;
 913:Drivers/STM32F4xx_HAL_Driver/Src/stm32f4xx_ll_sdmmc.c ****   SDIO_SendCommand(SDIOx, &sdmmc_cmdinit);
 914:Drivers/STM32F4xx_HAL_Driver/Src/stm32f4xx_ll_sdmmc.c ****   
 915:Drivers/STM32F4xx_HAL_Driver/Src/stm32f4xx_ll_sdmmc.c ****   /* Check for error conditions */
 916:Drivers/STM32F4xx_HAL_Driver/Src/stm32f4xx_ll_sdmmc.c ****   errorstate = SDMMC_GetCmdResp3(SDIOx);
 917:Drivers/STM32F4xx_HAL_Driver/Src/stm32f4xx_ll_sdmmc.c **** 
 918:Drivers/STM32F4xx_HAL_Driver/Src/stm32f4xx_ll_sdmmc.c ****   return errorstate;
 919:Drivers/STM32F4xx_HAL_Driver/Src/stm32f4xx_ll_sdmmc.c **** }
 920:Drivers/STM32F4xx_HAL_Driver/Src/stm32f4xx_ll_sdmmc.c **** 
 921:Drivers/STM32F4xx_HAL_Driver/Src/stm32f4xx_ll_sdmmc.c **** /**
 922:Drivers/STM32F4xx_HAL_Driver/Src/stm32f4xx_ll_sdmmc.c ****   * @brief  Send the Bus Width command and check the response.
 923:Drivers/STM32F4xx_HAL_Driver/Src/stm32f4xx_ll_sdmmc.c ****   * @param  SDIOx Pointer to SDIO register base 
 924:Drivers/STM32F4xx_HAL_Driver/Src/stm32f4xx_ll_sdmmc.c ****   * @retval HAL status
 925:Drivers/STM32F4xx_HAL_Driver/Src/stm32f4xx_ll_sdmmc.c ****   */
 926:Drivers/STM32F4xx_HAL_Driver/Src/stm32f4xx_ll_sdmmc.c **** uint32_t SDMMC_CmdBusWidth(SDIO_TypeDef *SDIOx, uint32_t BusWidth)
 927:Drivers/STM32F4xx_HAL_Driver/Src/stm32f4xx_ll_sdmmc.c **** {
 928:Drivers/STM32F4xx_HAL_Driver/Src/stm32f4xx_ll_sdmmc.c ****   SDIO_CmdInitTypeDef  sdmmc_cmdinit;
 929:Drivers/STM32F4xx_HAL_Driver/Src/stm32f4xx_ll_sdmmc.c ****   uint32_t errorstate = SDMMC_ERROR_NONE;
 930:Drivers/STM32F4xx_HAL_Driver/Src/stm32f4xx_ll_sdmmc.c ****   
 931:Drivers/STM32F4xx_HAL_Driver/Src/stm32f4xx_ll_sdmmc.c ****   sdmmc_cmdinit.Argument         = (uint32_t)BusWidth;
 932:Drivers/STM32F4xx_HAL_Driver/Src/stm32f4xx_ll_sdmmc.c ****   sdmmc_cmdinit.CmdIndex         = SDMMC_CMD_APP_SD_SET_BUSWIDTH;
 933:Drivers/STM32F4xx_HAL_Driver/Src/stm32f4xx_ll_sdmmc.c ****   sdmmc_cmdinit.Response         = SDIO_RESPONSE_SHORT;
 934:Drivers/STM32F4xx_HAL_Driver/Src/stm32f4xx_ll_sdmmc.c ****   sdmmc_cmdinit.WaitForInterrupt = SDIO_WAIT_NO;
 935:Drivers/STM32F4xx_HAL_Driver/Src/stm32f4xx_ll_sdmmc.c ****   sdmmc_cmdinit.CPSM             = SDIO_CPSM_ENABLE;
 936:Drivers/STM32F4xx_HAL_Driver/Src/stm32f4xx_ll_sdmmc.c ****   SDIO_SendCommand(SDIOx, &sdmmc_cmdinit);
 937:Drivers/STM32F4xx_HAL_Driver/Src/stm32f4xx_ll_sdmmc.c ****   
 938:Drivers/STM32F4xx_HAL_Driver/Src/stm32f4xx_ll_sdmmc.c ****   /* Check for error conditions */
 939:Drivers/STM32F4xx_HAL_Driver/Src/stm32f4xx_ll_sdmmc.c ****   errorstate = SDMMC_GetCmdResp1(SDIOx, SDMMC_CMD_APP_SD_SET_BUSWIDTH, SDIO_CMDTIMEOUT);
 940:Drivers/STM32F4xx_HAL_Driver/Src/stm32f4xx_ll_sdmmc.c **** 
 941:Drivers/STM32F4xx_HAL_Driver/Src/stm32f4xx_ll_sdmmc.c ****   return errorstate;
 942:Drivers/STM32F4xx_HAL_Driver/Src/stm32f4xx_ll_sdmmc.c **** }
ARM GAS  /tmp/ccDCAHOp.s 			page 18


 943:Drivers/STM32F4xx_HAL_Driver/Src/stm32f4xx_ll_sdmmc.c **** 
 944:Drivers/STM32F4xx_HAL_Driver/Src/stm32f4xx_ll_sdmmc.c **** /**
 945:Drivers/STM32F4xx_HAL_Driver/Src/stm32f4xx_ll_sdmmc.c ****   * @brief  Send the Send SCR command and check the response.
 946:Drivers/STM32F4xx_HAL_Driver/Src/stm32f4xx_ll_sdmmc.c ****   * @param  SDIOx Pointer to SDMMC register base 
 947:Drivers/STM32F4xx_HAL_Driver/Src/stm32f4xx_ll_sdmmc.c ****   * @retval HAL status
 948:Drivers/STM32F4xx_HAL_Driver/Src/stm32f4xx_ll_sdmmc.c ****   */
 949:Drivers/STM32F4xx_HAL_Driver/Src/stm32f4xx_ll_sdmmc.c **** uint32_t SDMMC_CmdSendSCR(SDIO_TypeDef *SDIOx)
 950:Drivers/STM32F4xx_HAL_Driver/Src/stm32f4xx_ll_sdmmc.c **** {
 951:Drivers/STM32F4xx_HAL_Driver/Src/stm32f4xx_ll_sdmmc.c ****   SDIO_CmdInitTypeDef  sdmmc_cmdinit;
 952:Drivers/STM32F4xx_HAL_Driver/Src/stm32f4xx_ll_sdmmc.c ****   uint32_t errorstate = SDMMC_ERROR_NONE;
 953:Drivers/STM32F4xx_HAL_Driver/Src/stm32f4xx_ll_sdmmc.c ****   
 954:Drivers/STM32F4xx_HAL_Driver/Src/stm32f4xx_ll_sdmmc.c ****   /* Send CMD51 SD_APP_SEND_SCR */
 955:Drivers/STM32F4xx_HAL_Driver/Src/stm32f4xx_ll_sdmmc.c ****   sdmmc_cmdinit.Argument         = 0U;
 956:Drivers/STM32F4xx_HAL_Driver/Src/stm32f4xx_ll_sdmmc.c ****   sdmmc_cmdinit.CmdIndex         = SDMMC_CMD_SD_APP_SEND_SCR;
 957:Drivers/STM32F4xx_HAL_Driver/Src/stm32f4xx_ll_sdmmc.c ****   sdmmc_cmdinit.Response         = SDIO_RESPONSE_SHORT;
 958:Drivers/STM32F4xx_HAL_Driver/Src/stm32f4xx_ll_sdmmc.c ****   sdmmc_cmdinit.WaitForInterrupt = SDIO_WAIT_NO;
 959:Drivers/STM32F4xx_HAL_Driver/Src/stm32f4xx_ll_sdmmc.c ****   sdmmc_cmdinit.CPSM             = SDIO_CPSM_ENABLE;
 960:Drivers/STM32F4xx_HAL_Driver/Src/stm32f4xx_ll_sdmmc.c ****   SDIO_SendCommand(SDIOx, &sdmmc_cmdinit);
 961:Drivers/STM32F4xx_HAL_Driver/Src/stm32f4xx_ll_sdmmc.c ****   
 962:Drivers/STM32F4xx_HAL_Driver/Src/stm32f4xx_ll_sdmmc.c ****   /* Check for error conditions */
 963:Drivers/STM32F4xx_HAL_Driver/Src/stm32f4xx_ll_sdmmc.c ****   errorstate = SDMMC_GetCmdResp1(SDIOx, SDMMC_CMD_SD_APP_SEND_SCR, SDIO_CMDTIMEOUT);
 964:Drivers/STM32F4xx_HAL_Driver/Src/stm32f4xx_ll_sdmmc.c **** 
 965:Drivers/STM32F4xx_HAL_Driver/Src/stm32f4xx_ll_sdmmc.c ****   return errorstate;
 966:Drivers/STM32F4xx_HAL_Driver/Src/stm32f4xx_ll_sdmmc.c **** }
 967:Drivers/STM32F4xx_HAL_Driver/Src/stm32f4xx_ll_sdmmc.c **** 
 968:Drivers/STM32F4xx_HAL_Driver/Src/stm32f4xx_ll_sdmmc.c **** /**
 969:Drivers/STM32F4xx_HAL_Driver/Src/stm32f4xx_ll_sdmmc.c ****   * @brief  Send the Send CID command and check the response.
 970:Drivers/STM32F4xx_HAL_Driver/Src/stm32f4xx_ll_sdmmc.c ****   * @param  SDIOx Pointer to SDIO register base 
 971:Drivers/STM32F4xx_HAL_Driver/Src/stm32f4xx_ll_sdmmc.c ****   * @retval HAL status
 972:Drivers/STM32F4xx_HAL_Driver/Src/stm32f4xx_ll_sdmmc.c ****   */
 973:Drivers/STM32F4xx_HAL_Driver/Src/stm32f4xx_ll_sdmmc.c **** uint32_t SDMMC_CmdSendCID(SDIO_TypeDef *SDIOx)
 974:Drivers/STM32F4xx_HAL_Driver/Src/stm32f4xx_ll_sdmmc.c **** {
 975:Drivers/STM32F4xx_HAL_Driver/Src/stm32f4xx_ll_sdmmc.c ****   SDIO_CmdInitTypeDef  sdmmc_cmdinit;
 976:Drivers/STM32F4xx_HAL_Driver/Src/stm32f4xx_ll_sdmmc.c ****   uint32_t errorstate = SDMMC_ERROR_NONE;
 977:Drivers/STM32F4xx_HAL_Driver/Src/stm32f4xx_ll_sdmmc.c ****   
 978:Drivers/STM32F4xx_HAL_Driver/Src/stm32f4xx_ll_sdmmc.c ****   /* Send CMD2 ALL_SEND_CID */
 979:Drivers/STM32F4xx_HAL_Driver/Src/stm32f4xx_ll_sdmmc.c ****   sdmmc_cmdinit.Argument         = 0U;
 980:Drivers/STM32F4xx_HAL_Driver/Src/stm32f4xx_ll_sdmmc.c ****   sdmmc_cmdinit.CmdIndex         = SDMMC_CMD_ALL_SEND_CID;
 981:Drivers/STM32F4xx_HAL_Driver/Src/stm32f4xx_ll_sdmmc.c ****   sdmmc_cmdinit.Response         = SDIO_RESPONSE_LONG;
 982:Drivers/STM32F4xx_HAL_Driver/Src/stm32f4xx_ll_sdmmc.c ****   sdmmc_cmdinit.WaitForInterrupt = SDIO_WAIT_NO;
 983:Drivers/STM32F4xx_HAL_Driver/Src/stm32f4xx_ll_sdmmc.c ****   sdmmc_cmdinit.CPSM             = SDIO_CPSM_ENABLE;
 984:Drivers/STM32F4xx_HAL_Driver/Src/stm32f4xx_ll_sdmmc.c ****   SDIO_SendCommand(SDIOx, &sdmmc_cmdinit);
 985:Drivers/STM32F4xx_HAL_Driver/Src/stm32f4xx_ll_sdmmc.c ****   
 986:Drivers/STM32F4xx_HAL_Driver/Src/stm32f4xx_ll_sdmmc.c ****   /* Check for error conditions */
 987:Drivers/STM32F4xx_HAL_Driver/Src/stm32f4xx_ll_sdmmc.c ****   errorstate = SDMMC_GetCmdResp2(SDIOx);
 988:Drivers/STM32F4xx_HAL_Driver/Src/stm32f4xx_ll_sdmmc.c **** 
 989:Drivers/STM32F4xx_HAL_Driver/Src/stm32f4xx_ll_sdmmc.c ****   return errorstate;
 990:Drivers/STM32F4xx_HAL_Driver/Src/stm32f4xx_ll_sdmmc.c **** }
 991:Drivers/STM32F4xx_HAL_Driver/Src/stm32f4xx_ll_sdmmc.c **** 
 992:Drivers/STM32F4xx_HAL_Driver/Src/stm32f4xx_ll_sdmmc.c **** /**
 993:Drivers/STM32F4xx_HAL_Driver/Src/stm32f4xx_ll_sdmmc.c ****   * @brief  Send the Send CSD command and check the response.
 994:Drivers/STM32F4xx_HAL_Driver/Src/stm32f4xx_ll_sdmmc.c ****   * @param  SDIOx Pointer to SDIO register base 
 995:Drivers/STM32F4xx_HAL_Driver/Src/stm32f4xx_ll_sdmmc.c ****   * @retval HAL status
 996:Drivers/STM32F4xx_HAL_Driver/Src/stm32f4xx_ll_sdmmc.c ****   */
 997:Drivers/STM32F4xx_HAL_Driver/Src/stm32f4xx_ll_sdmmc.c **** uint32_t SDMMC_CmdSendCSD(SDIO_TypeDef *SDIOx, uint32_t Argument)
 998:Drivers/STM32F4xx_HAL_Driver/Src/stm32f4xx_ll_sdmmc.c **** {
 999:Drivers/STM32F4xx_HAL_Driver/Src/stm32f4xx_ll_sdmmc.c ****   SDIO_CmdInitTypeDef  sdmmc_cmdinit;
ARM GAS  /tmp/ccDCAHOp.s 			page 19


1000:Drivers/STM32F4xx_HAL_Driver/Src/stm32f4xx_ll_sdmmc.c ****   uint32_t errorstate = SDMMC_ERROR_NONE;
1001:Drivers/STM32F4xx_HAL_Driver/Src/stm32f4xx_ll_sdmmc.c ****   
1002:Drivers/STM32F4xx_HAL_Driver/Src/stm32f4xx_ll_sdmmc.c ****   /* Send CMD9 SEND_CSD */
1003:Drivers/STM32F4xx_HAL_Driver/Src/stm32f4xx_ll_sdmmc.c ****   sdmmc_cmdinit.Argument         = (uint32_t)Argument;
1004:Drivers/STM32F4xx_HAL_Driver/Src/stm32f4xx_ll_sdmmc.c ****   sdmmc_cmdinit.CmdIndex         = SDMMC_CMD_SEND_CSD;
1005:Drivers/STM32F4xx_HAL_Driver/Src/stm32f4xx_ll_sdmmc.c ****   sdmmc_cmdinit.Response         = SDIO_RESPONSE_LONG;
1006:Drivers/STM32F4xx_HAL_Driver/Src/stm32f4xx_ll_sdmmc.c ****   sdmmc_cmdinit.WaitForInterrupt = SDIO_WAIT_NO;
1007:Drivers/STM32F4xx_HAL_Driver/Src/stm32f4xx_ll_sdmmc.c ****   sdmmc_cmdinit.CPSM             = SDIO_CPSM_ENABLE;
1008:Drivers/STM32F4xx_HAL_Driver/Src/stm32f4xx_ll_sdmmc.c ****   SDIO_SendCommand(SDIOx, &sdmmc_cmdinit);
1009:Drivers/STM32F4xx_HAL_Driver/Src/stm32f4xx_ll_sdmmc.c ****   
1010:Drivers/STM32F4xx_HAL_Driver/Src/stm32f4xx_ll_sdmmc.c ****   /* Check for error conditions */
1011:Drivers/STM32F4xx_HAL_Driver/Src/stm32f4xx_ll_sdmmc.c ****   errorstate = SDMMC_GetCmdResp2(SDIOx);
1012:Drivers/STM32F4xx_HAL_Driver/Src/stm32f4xx_ll_sdmmc.c **** 
1013:Drivers/STM32F4xx_HAL_Driver/Src/stm32f4xx_ll_sdmmc.c ****   return errorstate;
1014:Drivers/STM32F4xx_HAL_Driver/Src/stm32f4xx_ll_sdmmc.c **** }
1015:Drivers/STM32F4xx_HAL_Driver/Src/stm32f4xx_ll_sdmmc.c **** 
1016:Drivers/STM32F4xx_HAL_Driver/Src/stm32f4xx_ll_sdmmc.c **** /**
1017:Drivers/STM32F4xx_HAL_Driver/Src/stm32f4xx_ll_sdmmc.c ****   * @brief  Send the Send CSD command and check the response.
1018:Drivers/STM32F4xx_HAL_Driver/Src/stm32f4xx_ll_sdmmc.c ****   * @param  SDIOx Pointer to SDIO register base 
1019:Drivers/STM32F4xx_HAL_Driver/Src/stm32f4xx_ll_sdmmc.c ****   * @retval HAL status
1020:Drivers/STM32F4xx_HAL_Driver/Src/stm32f4xx_ll_sdmmc.c ****   */
1021:Drivers/STM32F4xx_HAL_Driver/Src/stm32f4xx_ll_sdmmc.c **** uint32_t SDMMC_CmdSetRelAdd(SDIO_TypeDef *SDIOx, uint16_t *pRCA)
1022:Drivers/STM32F4xx_HAL_Driver/Src/stm32f4xx_ll_sdmmc.c **** {
1023:Drivers/STM32F4xx_HAL_Driver/Src/stm32f4xx_ll_sdmmc.c ****   SDIO_CmdInitTypeDef  sdmmc_cmdinit;
1024:Drivers/STM32F4xx_HAL_Driver/Src/stm32f4xx_ll_sdmmc.c ****   uint32_t errorstate = SDMMC_ERROR_NONE;
1025:Drivers/STM32F4xx_HAL_Driver/Src/stm32f4xx_ll_sdmmc.c ****   
1026:Drivers/STM32F4xx_HAL_Driver/Src/stm32f4xx_ll_sdmmc.c ****   /* Send CMD3 SD_CMD_SET_REL_ADDR */
1027:Drivers/STM32F4xx_HAL_Driver/Src/stm32f4xx_ll_sdmmc.c ****   sdmmc_cmdinit.Argument         = 0U;
1028:Drivers/STM32F4xx_HAL_Driver/Src/stm32f4xx_ll_sdmmc.c ****   sdmmc_cmdinit.CmdIndex         = SDMMC_CMD_SET_REL_ADDR;
1029:Drivers/STM32F4xx_HAL_Driver/Src/stm32f4xx_ll_sdmmc.c ****   sdmmc_cmdinit.Response         = SDIO_RESPONSE_SHORT;
1030:Drivers/STM32F4xx_HAL_Driver/Src/stm32f4xx_ll_sdmmc.c ****   sdmmc_cmdinit.WaitForInterrupt = SDIO_WAIT_NO;
1031:Drivers/STM32F4xx_HAL_Driver/Src/stm32f4xx_ll_sdmmc.c ****   sdmmc_cmdinit.CPSM             = SDIO_CPSM_ENABLE;
1032:Drivers/STM32F4xx_HAL_Driver/Src/stm32f4xx_ll_sdmmc.c ****   SDIO_SendCommand(SDIOx, &sdmmc_cmdinit);
1033:Drivers/STM32F4xx_HAL_Driver/Src/stm32f4xx_ll_sdmmc.c ****   
1034:Drivers/STM32F4xx_HAL_Driver/Src/stm32f4xx_ll_sdmmc.c ****   /* Check for error conditions */
1035:Drivers/STM32F4xx_HAL_Driver/Src/stm32f4xx_ll_sdmmc.c ****   errorstate = SDMMC_GetCmdResp6(SDIOx, SDMMC_CMD_SET_REL_ADDR, pRCA);
1036:Drivers/STM32F4xx_HAL_Driver/Src/stm32f4xx_ll_sdmmc.c **** 
1037:Drivers/STM32F4xx_HAL_Driver/Src/stm32f4xx_ll_sdmmc.c ****   return errorstate;
1038:Drivers/STM32F4xx_HAL_Driver/Src/stm32f4xx_ll_sdmmc.c **** }
1039:Drivers/STM32F4xx_HAL_Driver/Src/stm32f4xx_ll_sdmmc.c **** 
1040:Drivers/STM32F4xx_HAL_Driver/Src/stm32f4xx_ll_sdmmc.c **** /**
1041:Drivers/STM32F4xx_HAL_Driver/Src/stm32f4xx_ll_sdmmc.c ****   * @brief  Send the Status command and check the response.
1042:Drivers/STM32F4xx_HAL_Driver/Src/stm32f4xx_ll_sdmmc.c ****   * @param  SDIOx Pointer to SDIO register base 
1043:Drivers/STM32F4xx_HAL_Driver/Src/stm32f4xx_ll_sdmmc.c ****   * @retval HAL status
1044:Drivers/STM32F4xx_HAL_Driver/Src/stm32f4xx_ll_sdmmc.c ****   */
1045:Drivers/STM32F4xx_HAL_Driver/Src/stm32f4xx_ll_sdmmc.c **** uint32_t SDMMC_CmdSendStatus(SDIO_TypeDef *SDIOx, uint32_t Argument)
1046:Drivers/STM32F4xx_HAL_Driver/Src/stm32f4xx_ll_sdmmc.c **** {
1047:Drivers/STM32F4xx_HAL_Driver/Src/stm32f4xx_ll_sdmmc.c ****   SDIO_CmdInitTypeDef  sdmmc_cmdinit;
1048:Drivers/STM32F4xx_HAL_Driver/Src/stm32f4xx_ll_sdmmc.c ****   uint32_t errorstate = SDMMC_ERROR_NONE;
1049:Drivers/STM32F4xx_HAL_Driver/Src/stm32f4xx_ll_sdmmc.c ****   
1050:Drivers/STM32F4xx_HAL_Driver/Src/stm32f4xx_ll_sdmmc.c ****   sdmmc_cmdinit.Argument         = (uint32_t)Argument;
1051:Drivers/STM32F4xx_HAL_Driver/Src/stm32f4xx_ll_sdmmc.c ****   sdmmc_cmdinit.CmdIndex         = SDMMC_CMD_SEND_STATUS;
1052:Drivers/STM32F4xx_HAL_Driver/Src/stm32f4xx_ll_sdmmc.c ****   sdmmc_cmdinit.Response         = SDIO_RESPONSE_SHORT;
1053:Drivers/STM32F4xx_HAL_Driver/Src/stm32f4xx_ll_sdmmc.c ****   sdmmc_cmdinit.WaitForInterrupt = SDIO_WAIT_NO;
1054:Drivers/STM32F4xx_HAL_Driver/Src/stm32f4xx_ll_sdmmc.c ****   sdmmc_cmdinit.CPSM             = SDIO_CPSM_ENABLE;
1055:Drivers/STM32F4xx_HAL_Driver/Src/stm32f4xx_ll_sdmmc.c ****   SDIO_SendCommand(SDIOx, &sdmmc_cmdinit);
1056:Drivers/STM32F4xx_HAL_Driver/Src/stm32f4xx_ll_sdmmc.c ****   
ARM GAS  /tmp/ccDCAHOp.s 			page 20


1057:Drivers/STM32F4xx_HAL_Driver/Src/stm32f4xx_ll_sdmmc.c ****   /* Check for error conditions */
1058:Drivers/STM32F4xx_HAL_Driver/Src/stm32f4xx_ll_sdmmc.c ****   errorstate = SDMMC_GetCmdResp1(SDIOx, SDMMC_CMD_SEND_STATUS, SDIO_CMDTIMEOUT);
1059:Drivers/STM32F4xx_HAL_Driver/Src/stm32f4xx_ll_sdmmc.c **** 
1060:Drivers/STM32F4xx_HAL_Driver/Src/stm32f4xx_ll_sdmmc.c ****   return errorstate;
1061:Drivers/STM32F4xx_HAL_Driver/Src/stm32f4xx_ll_sdmmc.c **** }
1062:Drivers/STM32F4xx_HAL_Driver/Src/stm32f4xx_ll_sdmmc.c **** 
1063:Drivers/STM32F4xx_HAL_Driver/Src/stm32f4xx_ll_sdmmc.c **** /**
1064:Drivers/STM32F4xx_HAL_Driver/Src/stm32f4xx_ll_sdmmc.c ****   * @brief  Send the Status register command and check the response.
1065:Drivers/STM32F4xx_HAL_Driver/Src/stm32f4xx_ll_sdmmc.c ****   * @param  SDIOx Pointer to SDIO register base 
1066:Drivers/STM32F4xx_HAL_Driver/Src/stm32f4xx_ll_sdmmc.c ****   * @retval HAL status
1067:Drivers/STM32F4xx_HAL_Driver/Src/stm32f4xx_ll_sdmmc.c ****   */
1068:Drivers/STM32F4xx_HAL_Driver/Src/stm32f4xx_ll_sdmmc.c **** uint32_t SDMMC_CmdStatusRegister(SDIO_TypeDef *SDIOx)
1069:Drivers/STM32F4xx_HAL_Driver/Src/stm32f4xx_ll_sdmmc.c **** {
1070:Drivers/STM32F4xx_HAL_Driver/Src/stm32f4xx_ll_sdmmc.c ****   SDIO_CmdInitTypeDef  sdmmc_cmdinit;
1071:Drivers/STM32F4xx_HAL_Driver/Src/stm32f4xx_ll_sdmmc.c ****   uint32_t errorstate = SDMMC_ERROR_NONE;
1072:Drivers/STM32F4xx_HAL_Driver/Src/stm32f4xx_ll_sdmmc.c ****   
1073:Drivers/STM32F4xx_HAL_Driver/Src/stm32f4xx_ll_sdmmc.c ****   sdmmc_cmdinit.Argument         = 0U;
1074:Drivers/STM32F4xx_HAL_Driver/Src/stm32f4xx_ll_sdmmc.c ****   sdmmc_cmdinit.CmdIndex         = SDMMC_CMD_SD_APP_STATUS;
1075:Drivers/STM32F4xx_HAL_Driver/Src/stm32f4xx_ll_sdmmc.c ****   sdmmc_cmdinit.Response         = SDIO_RESPONSE_SHORT;
1076:Drivers/STM32F4xx_HAL_Driver/Src/stm32f4xx_ll_sdmmc.c ****   sdmmc_cmdinit.WaitForInterrupt = SDIO_WAIT_NO;
1077:Drivers/STM32F4xx_HAL_Driver/Src/stm32f4xx_ll_sdmmc.c ****   sdmmc_cmdinit.CPSM             = SDIO_CPSM_ENABLE;
1078:Drivers/STM32F4xx_HAL_Driver/Src/stm32f4xx_ll_sdmmc.c ****   SDIO_SendCommand(SDIOx, &sdmmc_cmdinit);
1079:Drivers/STM32F4xx_HAL_Driver/Src/stm32f4xx_ll_sdmmc.c ****   
1080:Drivers/STM32F4xx_HAL_Driver/Src/stm32f4xx_ll_sdmmc.c ****   /* Check for error conditions */
1081:Drivers/STM32F4xx_HAL_Driver/Src/stm32f4xx_ll_sdmmc.c ****   errorstate = SDMMC_GetCmdResp1(SDIOx, SDMMC_CMD_SD_APP_STATUS, SDIO_CMDTIMEOUT);
1082:Drivers/STM32F4xx_HAL_Driver/Src/stm32f4xx_ll_sdmmc.c **** 
1083:Drivers/STM32F4xx_HAL_Driver/Src/stm32f4xx_ll_sdmmc.c ****   return errorstate;
1084:Drivers/STM32F4xx_HAL_Driver/Src/stm32f4xx_ll_sdmmc.c **** }
1085:Drivers/STM32F4xx_HAL_Driver/Src/stm32f4xx_ll_sdmmc.c **** 
1086:Drivers/STM32F4xx_HAL_Driver/Src/stm32f4xx_ll_sdmmc.c **** /**
1087:Drivers/STM32F4xx_HAL_Driver/Src/stm32f4xx_ll_sdmmc.c ****   * @brief  Sends host capacity support information and activates the card's 
1088:Drivers/STM32F4xx_HAL_Driver/Src/stm32f4xx_ll_sdmmc.c ****   *         initialization process. Send SDMMC_CMD_SEND_OP_COND command
1089:Drivers/STM32F4xx_HAL_Driver/Src/stm32f4xx_ll_sdmmc.c ****   * @param  SDIOx Pointer to SDIO register base 
1090:Drivers/STM32F4xx_HAL_Driver/Src/stm32f4xx_ll_sdmmc.c ****   * @parame Argument Argument used for the command
1091:Drivers/STM32F4xx_HAL_Driver/Src/stm32f4xx_ll_sdmmc.c ****   * @retval HAL status
1092:Drivers/STM32F4xx_HAL_Driver/Src/stm32f4xx_ll_sdmmc.c ****   */
1093:Drivers/STM32F4xx_HAL_Driver/Src/stm32f4xx_ll_sdmmc.c **** uint32_t SDMMC_CmdOpCondition(SDIO_TypeDef *SDIOx, uint32_t Argument)
1094:Drivers/STM32F4xx_HAL_Driver/Src/stm32f4xx_ll_sdmmc.c **** {
1095:Drivers/STM32F4xx_HAL_Driver/Src/stm32f4xx_ll_sdmmc.c ****   SDIO_CmdInitTypeDef  sdmmc_cmdinit;
1096:Drivers/STM32F4xx_HAL_Driver/Src/stm32f4xx_ll_sdmmc.c ****   uint32_t errorstate = SDMMC_ERROR_NONE;
1097:Drivers/STM32F4xx_HAL_Driver/Src/stm32f4xx_ll_sdmmc.c ****   
1098:Drivers/STM32F4xx_HAL_Driver/Src/stm32f4xx_ll_sdmmc.c ****   sdmmc_cmdinit.Argument         = Argument;
1099:Drivers/STM32F4xx_HAL_Driver/Src/stm32f4xx_ll_sdmmc.c ****   sdmmc_cmdinit.CmdIndex         = SDMMC_CMD_SEND_OP_COND;
1100:Drivers/STM32F4xx_HAL_Driver/Src/stm32f4xx_ll_sdmmc.c ****   sdmmc_cmdinit.Response         = SDIO_RESPONSE_SHORT;
1101:Drivers/STM32F4xx_HAL_Driver/Src/stm32f4xx_ll_sdmmc.c ****   sdmmc_cmdinit.WaitForInterrupt = SDIO_WAIT_NO;
1102:Drivers/STM32F4xx_HAL_Driver/Src/stm32f4xx_ll_sdmmc.c ****   sdmmc_cmdinit.CPSM             = SDIO_CPSM_ENABLE;
1103:Drivers/STM32F4xx_HAL_Driver/Src/stm32f4xx_ll_sdmmc.c ****   SDIO_SendCommand(SDIOx, &sdmmc_cmdinit);
1104:Drivers/STM32F4xx_HAL_Driver/Src/stm32f4xx_ll_sdmmc.c ****   
1105:Drivers/STM32F4xx_HAL_Driver/Src/stm32f4xx_ll_sdmmc.c ****   /* Check for error conditions */
1106:Drivers/STM32F4xx_HAL_Driver/Src/stm32f4xx_ll_sdmmc.c ****   errorstate = SDMMC_GetCmdResp3(SDIOx);
1107:Drivers/STM32F4xx_HAL_Driver/Src/stm32f4xx_ll_sdmmc.c **** 
1108:Drivers/STM32F4xx_HAL_Driver/Src/stm32f4xx_ll_sdmmc.c ****   return errorstate;
1109:Drivers/STM32F4xx_HAL_Driver/Src/stm32f4xx_ll_sdmmc.c **** }
1110:Drivers/STM32F4xx_HAL_Driver/Src/stm32f4xx_ll_sdmmc.c **** 
1111:Drivers/STM32F4xx_HAL_Driver/Src/stm32f4xx_ll_sdmmc.c **** /**
1112:Drivers/STM32F4xx_HAL_Driver/Src/stm32f4xx_ll_sdmmc.c ****   * @brief  Checks switchable function and switch card function. SDMMC_CMD_HS_SWITCH comand
1113:Drivers/STM32F4xx_HAL_Driver/Src/stm32f4xx_ll_sdmmc.c ****   * @param  SDIOx Pointer to SDIO register base 
ARM GAS  /tmp/ccDCAHOp.s 			page 21


1114:Drivers/STM32F4xx_HAL_Driver/Src/stm32f4xx_ll_sdmmc.c ****   * @parame Argument Argument used for the command
1115:Drivers/STM32F4xx_HAL_Driver/Src/stm32f4xx_ll_sdmmc.c ****   * @retval HAL status
1116:Drivers/STM32F4xx_HAL_Driver/Src/stm32f4xx_ll_sdmmc.c ****   */
1117:Drivers/STM32F4xx_HAL_Driver/Src/stm32f4xx_ll_sdmmc.c **** uint32_t SDMMC_CmdSwitch(SDIO_TypeDef *SDIOx, uint32_t Argument)
1118:Drivers/STM32F4xx_HAL_Driver/Src/stm32f4xx_ll_sdmmc.c **** {
1119:Drivers/STM32F4xx_HAL_Driver/Src/stm32f4xx_ll_sdmmc.c ****   SDIO_CmdInitTypeDef  sdmmc_cmdinit;
1120:Drivers/STM32F4xx_HAL_Driver/Src/stm32f4xx_ll_sdmmc.c ****   uint32_t errorstate = SDMMC_ERROR_NONE;
1121:Drivers/STM32F4xx_HAL_Driver/Src/stm32f4xx_ll_sdmmc.c ****   
1122:Drivers/STM32F4xx_HAL_Driver/Src/stm32f4xx_ll_sdmmc.c ****   sdmmc_cmdinit.Argument         = Argument;
1123:Drivers/STM32F4xx_HAL_Driver/Src/stm32f4xx_ll_sdmmc.c ****   sdmmc_cmdinit.CmdIndex         = SDMMC_CMD_HS_SWITCH;
1124:Drivers/STM32F4xx_HAL_Driver/Src/stm32f4xx_ll_sdmmc.c ****   sdmmc_cmdinit.Response         = SDIO_RESPONSE_SHORT;
1125:Drivers/STM32F4xx_HAL_Driver/Src/stm32f4xx_ll_sdmmc.c ****   sdmmc_cmdinit.WaitForInterrupt = SDIO_WAIT_NO;
1126:Drivers/STM32F4xx_HAL_Driver/Src/stm32f4xx_ll_sdmmc.c ****   sdmmc_cmdinit.CPSM             = SDIO_CPSM_ENABLE;
1127:Drivers/STM32F4xx_HAL_Driver/Src/stm32f4xx_ll_sdmmc.c ****   SDIO_SendCommand(SDIOx, &sdmmc_cmdinit);
1128:Drivers/STM32F4xx_HAL_Driver/Src/stm32f4xx_ll_sdmmc.c ****   
1129:Drivers/STM32F4xx_HAL_Driver/Src/stm32f4xx_ll_sdmmc.c ****   /* Check for error conditions */
1130:Drivers/STM32F4xx_HAL_Driver/Src/stm32f4xx_ll_sdmmc.c ****   errorstate = SDMMC_GetCmdResp1(SDIOx, SDMMC_CMD_HS_SWITCH, SDIO_CMDTIMEOUT);
1131:Drivers/STM32F4xx_HAL_Driver/Src/stm32f4xx_ll_sdmmc.c **** 
1132:Drivers/STM32F4xx_HAL_Driver/Src/stm32f4xx_ll_sdmmc.c ****   return errorstate;
1133:Drivers/STM32F4xx_HAL_Driver/Src/stm32f4xx_ll_sdmmc.c **** }
1134:Drivers/STM32F4xx_HAL_Driver/Src/stm32f4xx_ll_sdmmc.c **** 
1135:Drivers/STM32F4xx_HAL_Driver/Src/stm32f4xx_ll_sdmmc.c **** /**
1136:Drivers/STM32F4xx_HAL_Driver/Src/stm32f4xx_ll_sdmmc.c ****   * @}
1137:Drivers/STM32F4xx_HAL_Driver/Src/stm32f4xx_ll_sdmmc.c ****   */
1138:Drivers/STM32F4xx_HAL_Driver/Src/stm32f4xx_ll_sdmmc.c **** 
1139:Drivers/STM32F4xx_HAL_Driver/Src/stm32f4xx_ll_sdmmc.c **** /* Private function ----------------------------------------------------------*/  
1140:Drivers/STM32F4xx_HAL_Driver/Src/stm32f4xx_ll_sdmmc.c **** /** @addtogroup SD_Private_Functions
1141:Drivers/STM32F4xx_HAL_Driver/Src/stm32f4xx_ll_sdmmc.c ****   * @{
1142:Drivers/STM32F4xx_HAL_Driver/Src/stm32f4xx_ll_sdmmc.c ****   */
1143:Drivers/STM32F4xx_HAL_Driver/Src/stm32f4xx_ll_sdmmc.c ****     
1144:Drivers/STM32F4xx_HAL_Driver/Src/stm32f4xx_ll_sdmmc.c **** /**
1145:Drivers/STM32F4xx_HAL_Driver/Src/stm32f4xx_ll_sdmmc.c ****   * @brief  Checks for error conditions for CMD0.
1146:Drivers/STM32F4xx_HAL_Driver/Src/stm32f4xx_ll_sdmmc.c ****   * @param  hsd SD handle
1147:Drivers/STM32F4xx_HAL_Driver/Src/stm32f4xx_ll_sdmmc.c ****   * @retval SD Card error state
1148:Drivers/STM32F4xx_HAL_Driver/Src/stm32f4xx_ll_sdmmc.c ****   */
1149:Drivers/STM32F4xx_HAL_Driver/Src/stm32f4xx_ll_sdmmc.c **** static uint32_t SDMMC_GetCmdError(SDIO_TypeDef *SDIOx)
1150:Drivers/STM32F4xx_HAL_Driver/Src/stm32f4xx_ll_sdmmc.c **** {
  29              		.loc 1 1150 1 view -0
  30              		.cfi_startproc
  31              		@ args = 0, pretend = 0, frame = 0
  32              		@ frame_needed = 0, uses_anonymous_args = 0
  33              		@ link register save eliminated.
1151:Drivers/STM32F4xx_HAL_Driver/Src/stm32f4xx_ll_sdmmc.c ****   /* 8 is the number of required instructions cycles for the below loop statement.
1152:Drivers/STM32F4xx_HAL_Driver/Src/stm32f4xx_ll_sdmmc.c ****   The SDMMC_CMDTIMEOUT is expressed in ms */
1153:Drivers/STM32F4xx_HAL_Driver/Src/stm32f4xx_ll_sdmmc.c ****   register uint32_t count = SDIO_CMDTIMEOUT * (SystemCoreClock / 8U /1000U);
  34              		.loc 1 1153 3 view .LVU1
  35              		.loc 1 1153 69 is_stmt 0 view .LVU2
  36 0000 0C4B     		ldr	r3, .L5
  37 0002 1B68     		ldr	r3, [r3]
  38 0004 0C4A     		ldr	r2, .L5+4
  39 0006 A2FB0323 		umull	r2, r3, r2, r3
  40 000a 5A0A     		lsrs	r2, r3, #9
  41              		.loc 1 1153 21 view .LVU3
  42 000c 41F28833 		movw	r3, #5000
  43 0010 03FB02F3 		mul	r3, r3, r2
  44              	.LVL1:
  45              	.L3:
ARM GAS  /tmp/ccDCAHOp.s 			page 22


1154:Drivers/STM32F4xx_HAL_Driver/Src/stm32f4xx_ll_sdmmc.c ****   
1155:Drivers/STM32F4xx_HAL_Driver/Src/stm32f4xx_ll_sdmmc.c ****   do
  46              		.loc 1 1155 3 is_stmt 1 view .LVU4
1156:Drivers/STM32F4xx_HAL_Driver/Src/stm32f4xx_ll_sdmmc.c ****   {
1157:Drivers/STM32F4xx_HAL_Driver/Src/stm32f4xx_ll_sdmmc.c ****     if (count-- == 0U)
  47              		.loc 1 1157 5 view .LVU5
  48              		.loc 1 1157 14 is_stmt 0 view .LVU6
  49 0014 5A1E     		subs	r2, r3, #1
  50              	.LVL2:
  51              		.loc 1 1157 8 view .LVU7
  52 0016 4BB1     		cbz	r3, .L4
1158:Drivers/STM32F4xx_HAL_Driver/Src/stm32f4xx_ll_sdmmc.c ****     {
1159:Drivers/STM32F4xx_HAL_Driver/Src/stm32f4xx_ll_sdmmc.c ****       return SDMMC_ERROR_TIMEOUT;
1160:Drivers/STM32F4xx_HAL_Driver/Src/stm32f4xx_ll_sdmmc.c ****     }
1161:Drivers/STM32F4xx_HAL_Driver/Src/stm32f4xx_ll_sdmmc.c ****     
1162:Drivers/STM32F4xx_HAL_Driver/Src/stm32f4xx_ll_sdmmc.c ****   }while(!__SDIO_GET_FLAG(SDIOx, SDIO_FLAG_CMDSENT));
  53              		.loc 1 1162 11 view .LVU8
  54 0018 416B     		ldr	r1, [r0, #52]
1157:Drivers/STM32F4xx_HAL_Driver/Src/stm32f4xx_ll_sdmmc.c ****     {
  55              		.loc 1 1157 14 view .LVU9
  56 001a 1346     		mov	r3, r2
  57              		.loc 1 1162 3 view .LVU10
  58 001c 11F0800F 		tst	r1, #128
  59 0020 F8D0     		beq	.L3
1163:Drivers/STM32F4xx_HAL_Driver/Src/stm32f4xx_ll_sdmmc.c ****   
1164:Drivers/STM32F4xx_HAL_Driver/Src/stm32f4xx_ll_sdmmc.c ****   /* Clear all the static flags */
1165:Drivers/STM32F4xx_HAL_Driver/Src/stm32f4xx_ll_sdmmc.c ****   __SDIO_CLEAR_FLAG(SDIOx, SDIO_STATIC_FLAGS);
  60              		.loc 1 1165 3 is_stmt 1 view .LVU11
  61 0022 40F2FF53 		movw	r3, #1535
  62 0026 8363     		str	r3, [r0, #56]
1166:Drivers/STM32F4xx_HAL_Driver/Src/stm32f4xx_ll_sdmmc.c ****   
1167:Drivers/STM32F4xx_HAL_Driver/Src/stm32f4xx_ll_sdmmc.c ****   return SDMMC_ERROR_NONE;
  63              		.loc 1 1167 3 view .LVU12
  64              		.loc 1 1167 10 is_stmt 0 view .LVU13
  65 0028 0020     		movs	r0, #0
  66              	.LVL3:
  67              		.loc 1 1167 10 view .LVU14
  68 002a 7047     		bx	lr
  69              	.LVL4:
  70              	.L4:
1159:Drivers/STM32F4xx_HAL_Driver/Src/stm32f4xx_ll_sdmmc.c ****     }
  71              		.loc 1 1159 14 view .LVU15
  72 002c 4FF00040 		mov	r0, #-2147483648
  73              	.LVL5:
1168:Drivers/STM32F4xx_HAL_Driver/Src/stm32f4xx_ll_sdmmc.c **** }
  74              		.loc 1 1168 1 view .LVU16
  75 0030 7047     		bx	lr
  76              	.L6:
  77 0032 00BF     		.align	2
  78              	.L5:
  79 0034 00000000 		.word	SystemCoreClock
  80 0038 D34D6210 		.word	274877907
  81              		.cfi_endproc
  82              	.LFE164:
  84              		.section	.text.SDMMC_GetCmdResp2,"ax",%progbits
  85              		.align	1
  86              		.syntax unified
ARM GAS  /tmp/ccDCAHOp.s 			page 23


  87              		.thumb
  88              		.thumb_func
  89              		.fpu fpv4-sp-d16
  91              	SDMMC_GetCmdResp2:
  92              	.LVL6:
  93              	.LFB166:
1169:Drivers/STM32F4xx_HAL_Driver/Src/stm32f4xx_ll_sdmmc.c **** 
1170:Drivers/STM32F4xx_HAL_Driver/Src/stm32f4xx_ll_sdmmc.c **** /**
1171:Drivers/STM32F4xx_HAL_Driver/Src/stm32f4xx_ll_sdmmc.c ****   * @brief  Checks for error conditions for R1 response.
1172:Drivers/STM32F4xx_HAL_Driver/Src/stm32f4xx_ll_sdmmc.c ****   * @param  hsd SD handle
1173:Drivers/STM32F4xx_HAL_Driver/Src/stm32f4xx_ll_sdmmc.c ****   * @param  SD_CMD The sent command index  
1174:Drivers/STM32F4xx_HAL_Driver/Src/stm32f4xx_ll_sdmmc.c ****   * @retval SD Card error state
1175:Drivers/STM32F4xx_HAL_Driver/Src/stm32f4xx_ll_sdmmc.c ****   */
1176:Drivers/STM32F4xx_HAL_Driver/Src/stm32f4xx_ll_sdmmc.c **** static uint32_t SDMMC_GetCmdResp1(SDIO_TypeDef *SDIOx, uint8_t SD_CMD, uint32_t Timeout)
1177:Drivers/STM32F4xx_HAL_Driver/Src/stm32f4xx_ll_sdmmc.c **** {
1178:Drivers/STM32F4xx_HAL_Driver/Src/stm32f4xx_ll_sdmmc.c ****   uint32_t response_r1;
1179:Drivers/STM32F4xx_HAL_Driver/Src/stm32f4xx_ll_sdmmc.c ****   
1180:Drivers/STM32F4xx_HAL_Driver/Src/stm32f4xx_ll_sdmmc.c ****   /* 8 is the number of required instructions cycles for the below loop statement.
1181:Drivers/STM32F4xx_HAL_Driver/Src/stm32f4xx_ll_sdmmc.c ****   The Timeout is expressed in ms */
1182:Drivers/STM32F4xx_HAL_Driver/Src/stm32f4xx_ll_sdmmc.c ****   register uint32_t count = Timeout * (SystemCoreClock / 8U /1000U);
1183:Drivers/STM32F4xx_HAL_Driver/Src/stm32f4xx_ll_sdmmc.c ****   
1184:Drivers/STM32F4xx_HAL_Driver/Src/stm32f4xx_ll_sdmmc.c ****   do
1185:Drivers/STM32F4xx_HAL_Driver/Src/stm32f4xx_ll_sdmmc.c ****   {
1186:Drivers/STM32F4xx_HAL_Driver/Src/stm32f4xx_ll_sdmmc.c ****     if (count-- == 0U)
1187:Drivers/STM32F4xx_HAL_Driver/Src/stm32f4xx_ll_sdmmc.c ****     {
1188:Drivers/STM32F4xx_HAL_Driver/Src/stm32f4xx_ll_sdmmc.c ****       return SDMMC_ERROR_TIMEOUT;
1189:Drivers/STM32F4xx_HAL_Driver/Src/stm32f4xx_ll_sdmmc.c ****     }
1190:Drivers/STM32F4xx_HAL_Driver/Src/stm32f4xx_ll_sdmmc.c ****     
1191:Drivers/STM32F4xx_HAL_Driver/Src/stm32f4xx_ll_sdmmc.c ****   }while(!__SDIO_GET_FLAG(SDIOx, SDIO_FLAG_CCRCFAIL | SDIO_FLAG_CMDREND | SDIO_FLAG_CTIMEOUT));
1192:Drivers/STM32F4xx_HAL_Driver/Src/stm32f4xx_ll_sdmmc.c ****   
1193:Drivers/STM32F4xx_HAL_Driver/Src/stm32f4xx_ll_sdmmc.c ****   if(__SDIO_GET_FLAG(SDIOx, SDIO_FLAG_CTIMEOUT))
1194:Drivers/STM32F4xx_HAL_Driver/Src/stm32f4xx_ll_sdmmc.c ****   {
1195:Drivers/STM32F4xx_HAL_Driver/Src/stm32f4xx_ll_sdmmc.c ****     __SDIO_CLEAR_FLAG(SDIOx, SDIO_FLAG_CTIMEOUT);
1196:Drivers/STM32F4xx_HAL_Driver/Src/stm32f4xx_ll_sdmmc.c ****     
1197:Drivers/STM32F4xx_HAL_Driver/Src/stm32f4xx_ll_sdmmc.c ****     return SDMMC_ERROR_CMD_RSP_TIMEOUT;
1198:Drivers/STM32F4xx_HAL_Driver/Src/stm32f4xx_ll_sdmmc.c ****   }
1199:Drivers/STM32F4xx_HAL_Driver/Src/stm32f4xx_ll_sdmmc.c ****   else if(__SDIO_GET_FLAG(SDIOx, SDIO_FLAG_CCRCFAIL))
1200:Drivers/STM32F4xx_HAL_Driver/Src/stm32f4xx_ll_sdmmc.c ****   {
1201:Drivers/STM32F4xx_HAL_Driver/Src/stm32f4xx_ll_sdmmc.c ****     __SDIO_CLEAR_FLAG(SDIOx, SDIO_FLAG_CCRCFAIL);
1202:Drivers/STM32F4xx_HAL_Driver/Src/stm32f4xx_ll_sdmmc.c ****     
1203:Drivers/STM32F4xx_HAL_Driver/Src/stm32f4xx_ll_sdmmc.c ****     return SDMMC_ERROR_CMD_CRC_FAIL;
1204:Drivers/STM32F4xx_HAL_Driver/Src/stm32f4xx_ll_sdmmc.c ****   }
1205:Drivers/STM32F4xx_HAL_Driver/Src/stm32f4xx_ll_sdmmc.c ****   
1206:Drivers/STM32F4xx_HAL_Driver/Src/stm32f4xx_ll_sdmmc.c ****   /* Check response received is of desired command */
1207:Drivers/STM32F4xx_HAL_Driver/Src/stm32f4xx_ll_sdmmc.c ****   if(SDIO_GetCommandResponse(SDIOx) != SD_CMD)
1208:Drivers/STM32F4xx_HAL_Driver/Src/stm32f4xx_ll_sdmmc.c ****   {
1209:Drivers/STM32F4xx_HAL_Driver/Src/stm32f4xx_ll_sdmmc.c ****     return SDMMC_ERROR_CMD_CRC_FAIL;
1210:Drivers/STM32F4xx_HAL_Driver/Src/stm32f4xx_ll_sdmmc.c ****   }
1211:Drivers/STM32F4xx_HAL_Driver/Src/stm32f4xx_ll_sdmmc.c ****   
1212:Drivers/STM32F4xx_HAL_Driver/Src/stm32f4xx_ll_sdmmc.c ****   /* Clear all the static flags */
1213:Drivers/STM32F4xx_HAL_Driver/Src/stm32f4xx_ll_sdmmc.c ****   __SDIO_CLEAR_FLAG(SDIOx, SDIO_STATIC_FLAGS);
1214:Drivers/STM32F4xx_HAL_Driver/Src/stm32f4xx_ll_sdmmc.c ****   
1215:Drivers/STM32F4xx_HAL_Driver/Src/stm32f4xx_ll_sdmmc.c ****   /* We have received response, retrieve it for analysis  */
1216:Drivers/STM32F4xx_HAL_Driver/Src/stm32f4xx_ll_sdmmc.c ****   response_r1 = SDIO_GetResponse(SDIOx, SDIO_RESP1);
1217:Drivers/STM32F4xx_HAL_Driver/Src/stm32f4xx_ll_sdmmc.c ****   
1218:Drivers/STM32F4xx_HAL_Driver/Src/stm32f4xx_ll_sdmmc.c ****   if((response_r1 & SDMMC_OCR_ERRORBITS) == SDMMC_ALLZERO)
1219:Drivers/STM32F4xx_HAL_Driver/Src/stm32f4xx_ll_sdmmc.c ****   {
ARM GAS  /tmp/ccDCAHOp.s 			page 24


1220:Drivers/STM32F4xx_HAL_Driver/Src/stm32f4xx_ll_sdmmc.c ****     return SDMMC_ERROR_NONE;
1221:Drivers/STM32F4xx_HAL_Driver/Src/stm32f4xx_ll_sdmmc.c ****   }
1222:Drivers/STM32F4xx_HAL_Driver/Src/stm32f4xx_ll_sdmmc.c ****   else if((response_r1 & SDMMC_OCR_ADDR_OUT_OF_RANGE) == SDMMC_OCR_ADDR_OUT_OF_RANGE)
1223:Drivers/STM32F4xx_HAL_Driver/Src/stm32f4xx_ll_sdmmc.c ****   {
1224:Drivers/STM32F4xx_HAL_Driver/Src/stm32f4xx_ll_sdmmc.c ****     return SDMMC_ERROR_ADDR_OUT_OF_RANGE;
1225:Drivers/STM32F4xx_HAL_Driver/Src/stm32f4xx_ll_sdmmc.c ****   }
1226:Drivers/STM32F4xx_HAL_Driver/Src/stm32f4xx_ll_sdmmc.c ****   else if((response_r1 & SDMMC_OCR_ADDR_MISALIGNED) == SDMMC_OCR_ADDR_MISALIGNED)
1227:Drivers/STM32F4xx_HAL_Driver/Src/stm32f4xx_ll_sdmmc.c ****   {
1228:Drivers/STM32F4xx_HAL_Driver/Src/stm32f4xx_ll_sdmmc.c ****     return SDMMC_ERROR_ADDR_MISALIGNED;
1229:Drivers/STM32F4xx_HAL_Driver/Src/stm32f4xx_ll_sdmmc.c ****   }
1230:Drivers/STM32F4xx_HAL_Driver/Src/stm32f4xx_ll_sdmmc.c ****   else if((response_r1 & SDMMC_OCR_BLOCK_LEN_ERR) == SDMMC_OCR_BLOCK_LEN_ERR)
1231:Drivers/STM32F4xx_HAL_Driver/Src/stm32f4xx_ll_sdmmc.c ****   {
1232:Drivers/STM32F4xx_HAL_Driver/Src/stm32f4xx_ll_sdmmc.c ****     return SDMMC_ERROR_BLOCK_LEN_ERR;
1233:Drivers/STM32F4xx_HAL_Driver/Src/stm32f4xx_ll_sdmmc.c ****   }
1234:Drivers/STM32F4xx_HAL_Driver/Src/stm32f4xx_ll_sdmmc.c ****   else if((response_r1 & SDMMC_OCR_ERASE_SEQ_ERR) == SDMMC_OCR_ERASE_SEQ_ERR)
1235:Drivers/STM32F4xx_HAL_Driver/Src/stm32f4xx_ll_sdmmc.c ****   {
1236:Drivers/STM32F4xx_HAL_Driver/Src/stm32f4xx_ll_sdmmc.c ****     return SDMMC_ERROR_ERASE_SEQ_ERR;
1237:Drivers/STM32F4xx_HAL_Driver/Src/stm32f4xx_ll_sdmmc.c ****   }
1238:Drivers/STM32F4xx_HAL_Driver/Src/stm32f4xx_ll_sdmmc.c ****   else if((response_r1 & SDMMC_OCR_BAD_ERASE_PARAM) == SDMMC_OCR_BAD_ERASE_PARAM)
1239:Drivers/STM32F4xx_HAL_Driver/Src/stm32f4xx_ll_sdmmc.c ****   {
1240:Drivers/STM32F4xx_HAL_Driver/Src/stm32f4xx_ll_sdmmc.c ****     return SDMMC_ERROR_BAD_ERASE_PARAM;
1241:Drivers/STM32F4xx_HAL_Driver/Src/stm32f4xx_ll_sdmmc.c ****   }
1242:Drivers/STM32F4xx_HAL_Driver/Src/stm32f4xx_ll_sdmmc.c ****   else if((response_r1 & SDMMC_OCR_WRITE_PROT_VIOLATION) == SDMMC_OCR_WRITE_PROT_VIOLATION)
1243:Drivers/STM32F4xx_HAL_Driver/Src/stm32f4xx_ll_sdmmc.c ****   {
1244:Drivers/STM32F4xx_HAL_Driver/Src/stm32f4xx_ll_sdmmc.c ****     return SDMMC_ERROR_WRITE_PROT_VIOLATION;
1245:Drivers/STM32F4xx_HAL_Driver/Src/stm32f4xx_ll_sdmmc.c ****   }
1246:Drivers/STM32F4xx_HAL_Driver/Src/stm32f4xx_ll_sdmmc.c ****   else if((response_r1 & SDMMC_OCR_LOCK_UNLOCK_FAILED) == SDMMC_OCR_LOCK_UNLOCK_FAILED)
1247:Drivers/STM32F4xx_HAL_Driver/Src/stm32f4xx_ll_sdmmc.c ****   {
1248:Drivers/STM32F4xx_HAL_Driver/Src/stm32f4xx_ll_sdmmc.c ****     return SDMMC_ERROR_LOCK_UNLOCK_FAILED;
1249:Drivers/STM32F4xx_HAL_Driver/Src/stm32f4xx_ll_sdmmc.c ****   }
1250:Drivers/STM32F4xx_HAL_Driver/Src/stm32f4xx_ll_sdmmc.c ****   else if((response_r1 & SDMMC_OCR_COM_CRC_FAILED) == SDMMC_OCR_COM_CRC_FAILED)
1251:Drivers/STM32F4xx_HAL_Driver/Src/stm32f4xx_ll_sdmmc.c ****   {
1252:Drivers/STM32F4xx_HAL_Driver/Src/stm32f4xx_ll_sdmmc.c ****     return SDMMC_ERROR_COM_CRC_FAILED;
1253:Drivers/STM32F4xx_HAL_Driver/Src/stm32f4xx_ll_sdmmc.c ****   }
1254:Drivers/STM32F4xx_HAL_Driver/Src/stm32f4xx_ll_sdmmc.c ****   else if((response_r1 & SDMMC_OCR_ILLEGAL_CMD) == SDMMC_OCR_ILLEGAL_CMD)
1255:Drivers/STM32F4xx_HAL_Driver/Src/stm32f4xx_ll_sdmmc.c ****   {
1256:Drivers/STM32F4xx_HAL_Driver/Src/stm32f4xx_ll_sdmmc.c ****     return SDMMC_ERROR_ILLEGAL_CMD;
1257:Drivers/STM32F4xx_HAL_Driver/Src/stm32f4xx_ll_sdmmc.c ****   }
1258:Drivers/STM32F4xx_HAL_Driver/Src/stm32f4xx_ll_sdmmc.c ****   else if((response_r1 & SDMMC_OCR_CARD_ECC_FAILED) == SDMMC_OCR_CARD_ECC_FAILED)
1259:Drivers/STM32F4xx_HAL_Driver/Src/stm32f4xx_ll_sdmmc.c ****   {
1260:Drivers/STM32F4xx_HAL_Driver/Src/stm32f4xx_ll_sdmmc.c ****     return SDMMC_ERROR_CARD_ECC_FAILED;
1261:Drivers/STM32F4xx_HAL_Driver/Src/stm32f4xx_ll_sdmmc.c ****   }
1262:Drivers/STM32F4xx_HAL_Driver/Src/stm32f4xx_ll_sdmmc.c ****   else if((response_r1 & SDMMC_OCR_CC_ERROR) == SDMMC_OCR_CC_ERROR)
1263:Drivers/STM32F4xx_HAL_Driver/Src/stm32f4xx_ll_sdmmc.c ****   {
1264:Drivers/STM32F4xx_HAL_Driver/Src/stm32f4xx_ll_sdmmc.c ****     return SDMMC_ERROR_CC_ERR;
1265:Drivers/STM32F4xx_HAL_Driver/Src/stm32f4xx_ll_sdmmc.c ****   }
1266:Drivers/STM32F4xx_HAL_Driver/Src/stm32f4xx_ll_sdmmc.c ****   else if((response_r1 & SDMMC_OCR_STREAM_READ_UNDERRUN) == SDMMC_OCR_STREAM_READ_UNDERRUN)
1267:Drivers/STM32F4xx_HAL_Driver/Src/stm32f4xx_ll_sdmmc.c ****   {
1268:Drivers/STM32F4xx_HAL_Driver/Src/stm32f4xx_ll_sdmmc.c ****     return SDMMC_ERROR_STREAM_READ_UNDERRUN;
1269:Drivers/STM32F4xx_HAL_Driver/Src/stm32f4xx_ll_sdmmc.c ****   }
1270:Drivers/STM32F4xx_HAL_Driver/Src/stm32f4xx_ll_sdmmc.c ****   else if((response_r1 & SDMMC_OCR_STREAM_WRITE_OVERRUN) == SDMMC_OCR_STREAM_WRITE_OVERRUN)
1271:Drivers/STM32F4xx_HAL_Driver/Src/stm32f4xx_ll_sdmmc.c ****   {
1272:Drivers/STM32F4xx_HAL_Driver/Src/stm32f4xx_ll_sdmmc.c ****     return SDMMC_ERROR_STREAM_WRITE_OVERRUN;
1273:Drivers/STM32F4xx_HAL_Driver/Src/stm32f4xx_ll_sdmmc.c ****   }
1274:Drivers/STM32F4xx_HAL_Driver/Src/stm32f4xx_ll_sdmmc.c ****   else if((response_r1 & SDMMC_OCR_CID_CSD_OVERWRITE) == SDMMC_OCR_CID_CSD_OVERWRITE)
1275:Drivers/STM32F4xx_HAL_Driver/Src/stm32f4xx_ll_sdmmc.c ****   {
1276:Drivers/STM32F4xx_HAL_Driver/Src/stm32f4xx_ll_sdmmc.c ****     return SDMMC_ERROR_CID_CSD_OVERWRITE;
ARM GAS  /tmp/ccDCAHOp.s 			page 25


1277:Drivers/STM32F4xx_HAL_Driver/Src/stm32f4xx_ll_sdmmc.c ****   }
1278:Drivers/STM32F4xx_HAL_Driver/Src/stm32f4xx_ll_sdmmc.c ****   else if((response_r1 & SDMMC_OCR_WP_ERASE_SKIP) == SDMMC_OCR_WP_ERASE_SKIP)
1279:Drivers/STM32F4xx_HAL_Driver/Src/stm32f4xx_ll_sdmmc.c ****   {
1280:Drivers/STM32F4xx_HAL_Driver/Src/stm32f4xx_ll_sdmmc.c ****     return SDMMC_ERROR_WP_ERASE_SKIP;
1281:Drivers/STM32F4xx_HAL_Driver/Src/stm32f4xx_ll_sdmmc.c ****   }
1282:Drivers/STM32F4xx_HAL_Driver/Src/stm32f4xx_ll_sdmmc.c ****   else if((response_r1 & SDMMC_OCR_CARD_ECC_DISABLED) == SDMMC_OCR_CARD_ECC_DISABLED)
1283:Drivers/STM32F4xx_HAL_Driver/Src/stm32f4xx_ll_sdmmc.c ****   {
1284:Drivers/STM32F4xx_HAL_Driver/Src/stm32f4xx_ll_sdmmc.c ****     return SDMMC_ERROR_CARD_ECC_DISABLED;
1285:Drivers/STM32F4xx_HAL_Driver/Src/stm32f4xx_ll_sdmmc.c ****   }
1286:Drivers/STM32F4xx_HAL_Driver/Src/stm32f4xx_ll_sdmmc.c ****   else if((response_r1 & SDMMC_OCR_ERASE_RESET) == SDMMC_OCR_ERASE_RESET)
1287:Drivers/STM32F4xx_HAL_Driver/Src/stm32f4xx_ll_sdmmc.c ****   {
1288:Drivers/STM32F4xx_HAL_Driver/Src/stm32f4xx_ll_sdmmc.c ****     return SDMMC_ERROR_ERASE_RESET;
1289:Drivers/STM32F4xx_HAL_Driver/Src/stm32f4xx_ll_sdmmc.c ****   }
1290:Drivers/STM32F4xx_HAL_Driver/Src/stm32f4xx_ll_sdmmc.c ****   else if((response_r1 & SDMMC_OCR_AKE_SEQ_ERROR) == SDMMC_OCR_AKE_SEQ_ERROR)
1291:Drivers/STM32F4xx_HAL_Driver/Src/stm32f4xx_ll_sdmmc.c ****   {
1292:Drivers/STM32F4xx_HAL_Driver/Src/stm32f4xx_ll_sdmmc.c ****     return SDMMC_ERROR_AKE_SEQ_ERR;
1293:Drivers/STM32F4xx_HAL_Driver/Src/stm32f4xx_ll_sdmmc.c ****   }
1294:Drivers/STM32F4xx_HAL_Driver/Src/stm32f4xx_ll_sdmmc.c ****   else
1295:Drivers/STM32F4xx_HAL_Driver/Src/stm32f4xx_ll_sdmmc.c ****   {
1296:Drivers/STM32F4xx_HAL_Driver/Src/stm32f4xx_ll_sdmmc.c ****     return SDMMC_ERROR_GENERAL_UNKNOWN_ERR;
1297:Drivers/STM32F4xx_HAL_Driver/Src/stm32f4xx_ll_sdmmc.c ****   }
1298:Drivers/STM32F4xx_HAL_Driver/Src/stm32f4xx_ll_sdmmc.c **** }
1299:Drivers/STM32F4xx_HAL_Driver/Src/stm32f4xx_ll_sdmmc.c **** 
1300:Drivers/STM32F4xx_HAL_Driver/Src/stm32f4xx_ll_sdmmc.c **** /**
1301:Drivers/STM32F4xx_HAL_Driver/Src/stm32f4xx_ll_sdmmc.c ****   * @brief  Checks for error conditions for R2 (CID or CSD) response.
1302:Drivers/STM32F4xx_HAL_Driver/Src/stm32f4xx_ll_sdmmc.c ****   * @param  hsd SD handle
1303:Drivers/STM32F4xx_HAL_Driver/Src/stm32f4xx_ll_sdmmc.c ****   * @retval SD Card error state
1304:Drivers/STM32F4xx_HAL_Driver/Src/stm32f4xx_ll_sdmmc.c ****   */
1305:Drivers/STM32F4xx_HAL_Driver/Src/stm32f4xx_ll_sdmmc.c **** static uint32_t SDMMC_GetCmdResp2(SDIO_TypeDef *SDIOx)
1306:Drivers/STM32F4xx_HAL_Driver/Src/stm32f4xx_ll_sdmmc.c **** {
  94              		.loc 1 1306 1 is_stmt 1 view -0
  95              		.cfi_startproc
  96              		@ args = 0, pretend = 0, frame = 0
  97              		@ frame_needed = 0, uses_anonymous_args = 0
  98              		@ link register save eliminated.
1307:Drivers/STM32F4xx_HAL_Driver/Src/stm32f4xx_ll_sdmmc.c ****   /* 8 is the number of required instructions cycles for the below loop statement.
1308:Drivers/STM32F4xx_HAL_Driver/Src/stm32f4xx_ll_sdmmc.c ****   The SDMMC_CMDTIMEOUT is expressed in ms */
1309:Drivers/STM32F4xx_HAL_Driver/Src/stm32f4xx_ll_sdmmc.c ****   register uint32_t count = SDIO_CMDTIMEOUT * (SystemCoreClock / 8U /1000U);
  99              		.loc 1 1309 3 view .LVU18
 100              		.loc 1 1309 69 is_stmt 0 view .LVU19
 101 0000 144B     		ldr	r3, .L15
 102 0002 1B68     		ldr	r3, [r3]
 103 0004 144A     		ldr	r2, .L15+4
 104 0006 A2FB0323 		umull	r2, r3, r2, r3
 105 000a 5A0A     		lsrs	r2, r3, #9
 106              		.loc 1 1309 21 view .LVU20
 107 000c 41F28833 		movw	r3, #5000
 108 0010 03FB02F3 		mul	r3, r3, r2
 109              	.LVL7:
 110              	.L9:
1310:Drivers/STM32F4xx_HAL_Driver/Src/stm32f4xx_ll_sdmmc.c ****   
1311:Drivers/STM32F4xx_HAL_Driver/Src/stm32f4xx_ll_sdmmc.c ****   do
 111              		.loc 1 1311 3 is_stmt 1 view .LVU21
1312:Drivers/STM32F4xx_HAL_Driver/Src/stm32f4xx_ll_sdmmc.c ****   {
1313:Drivers/STM32F4xx_HAL_Driver/Src/stm32f4xx_ll_sdmmc.c ****     if (count-- == 0U)
 112              		.loc 1 1313 5 view .LVU22
 113              		.loc 1 1313 14 is_stmt 0 view .LVU23
ARM GAS  /tmp/ccDCAHOp.s 			page 26


 114 0014 5A1E     		subs	r2, r3, #1
 115              	.LVL8:
 116              		.loc 1 1313 8 view .LVU24
 117 0016 CBB1     		cbz	r3, .L12
1314:Drivers/STM32F4xx_HAL_Driver/Src/stm32f4xx_ll_sdmmc.c ****     {
1315:Drivers/STM32F4xx_HAL_Driver/Src/stm32f4xx_ll_sdmmc.c ****       return SDMMC_ERROR_TIMEOUT;
1316:Drivers/STM32F4xx_HAL_Driver/Src/stm32f4xx_ll_sdmmc.c ****     }
1317:Drivers/STM32F4xx_HAL_Driver/Src/stm32f4xx_ll_sdmmc.c ****     
1318:Drivers/STM32F4xx_HAL_Driver/Src/stm32f4xx_ll_sdmmc.c ****   }while(!__SDIO_GET_FLAG(SDIOx, SDIO_FLAG_CCRCFAIL | SDIO_FLAG_CMDREND | SDIO_FLAG_CTIMEOUT));
 118              		.loc 1 1318 11 view .LVU25
 119 0018 416B     		ldr	r1, [r0, #52]
1313:Drivers/STM32F4xx_HAL_Driver/Src/stm32f4xx_ll_sdmmc.c ****     {
 120              		.loc 1 1313 14 view .LVU26
 121 001a 1346     		mov	r3, r2
 122              		.loc 1 1318 3 view .LVU27
 123 001c 11F0450F 		tst	r1, #69
 124 0020 F8D0     		beq	.L9
1319:Drivers/STM32F4xx_HAL_Driver/Src/stm32f4xx_ll_sdmmc.c ****     
1320:Drivers/STM32F4xx_HAL_Driver/Src/stm32f4xx_ll_sdmmc.c ****   if (__SDIO_GET_FLAG(SDIOx, SDIO_FLAG_CTIMEOUT))
 125              		.loc 1 1320 3 is_stmt 1 view .LVU28
 126              		.loc 1 1320 7 is_stmt 0 view .LVU29
 127 0022 436B     		ldr	r3, [r0, #52]
 128              		.loc 1 1320 6 view .LVU30
 129 0024 13F0040F 		tst	r3, #4
 130 0028 08D1     		bne	.L13
1321:Drivers/STM32F4xx_HAL_Driver/Src/stm32f4xx_ll_sdmmc.c ****   {
1322:Drivers/STM32F4xx_HAL_Driver/Src/stm32f4xx_ll_sdmmc.c ****     __SDIO_CLEAR_FLAG(SDIOx, SDIO_FLAG_CTIMEOUT);
1323:Drivers/STM32F4xx_HAL_Driver/Src/stm32f4xx_ll_sdmmc.c ****     
1324:Drivers/STM32F4xx_HAL_Driver/Src/stm32f4xx_ll_sdmmc.c ****     return SDMMC_ERROR_CMD_RSP_TIMEOUT;
1325:Drivers/STM32F4xx_HAL_Driver/Src/stm32f4xx_ll_sdmmc.c ****   }
1326:Drivers/STM32F4xx_HAL_Driver/Src/stm32f4xx_ll_sdmmc.c ****   else if (__SDIO_GET_FLAG(SDIOx, SDIO_FLAG_CCRCFAIL))
 131              		.loc 1 1326 8 is_stmt 1 view .LVU31
 132              		.loc 1 1326 12 is_stmt 0 view .LVU32
 133 002a 436B     		ldr	r3, [r0, #52]
 134              		.loc 1 1326 11 view .LVU33
 135 002c 13F0010F 		tst	r3, #1
 136 0030 08D1     		bne	.L14
1327:Drivers/STM32F4xx_HAL_Driver/Src/stm32f4xx_ll_sdmmc.c ****   {
1328:Drivers/STM32F4xx_HAL_Driver/Src/stm32f4xx_ll_sdmmc.c ****     __SDIO_CLEAR_FLAG(SDIOx, SDIO_FLAG_CCRCFAIL);
1329:Drivers/STM32F4xx_HAL_Driver/Src/stm32f4xx_ll_sdmmc.c ****     
1330:Drivers/STM32F4xx_HAL_Driver/Src/stm32f4xx_ll_sdmmc.c ****     return SDMMC_ERROR_CMD_CRC_FAIL;
1331:Drivers/STM32F4xx_HAL_Driver/Src/stm32f4xx_ll_sdmmc.c ****   }
1332:Drivers/STM32F4xx_HAL_Driver/Src/stm32f4xx_ll_sdmmc.c ****   else
1333:Drivers/STM32F4xx_HAL_Driver/Src/stm32f4xx_ll_sdmmc.c ****   {
1334:Drivers/STM32F4xx_HAL_Driver/Src/stm32f4xx_ll_sdmmc.c ****     /* No error flag set */
1335:Drivers/STM32F4xx_HAL_Driver/Src/stm32f4xx_ll_sdmmc.c ****     /* Clear all the static flags */
1336:Drivers/STM32F4xx_HAL_Driver/Src/stm32f4xx_ll_sdmmc.c ****     __SDIO_CLEAR_FLAG(SDIOx, SDIO_STATIC_FLAGS);
 137              		.loc 1 1336 5 is_stmt 1 view .LVU34
 138 0032 40F2FF53 		movw	r3, #1535
 139 0036 8363     		str	r3, [r0, #56]
1337:Drivers/STM32F4xx_HAL_Driver/Src/stm32f4xx_ll_sdmmc.c ****   }
1338:Drivers/STM32F4xx_HAL_Driver/Src/stm32f4xx_ll_sdmmc.c **** 
1339:Drivers/STM32F4xx_HAL_Driver/Src/stm32f4xx_ll_sdmmc.c ****   return SDMMC_ERROR_NONE;
 140              		.loc 1 1339 3 view .LVU35
 141              		.loc 1 1339 10 is_stmt 0 view .LVU36
 142 0038 0020     		movs	r0, #0
 143              	.LVL9:
ARM GAS  /tmp/ccDCAHOp.s 			page 27


 144              		.loc 1 1339 10 view .LVU37
 145 003a 7047     		bx	lr
 146              	.LVL10:
 147              	.L13:
1322:Drivers/STM32F4xx_HAL_Driver/Src/stm32f4xx_ll_sdmmc.c ****     
 148              		.loc 1 1322 5 is_stmt 1 view .LVU38
 149 003c 0423     		movs	r3, #4
 150 003e 8363     		str	r3, [r0, #56]
1324:Drivers/STM32F4xx_HAL_Driver/Src/stm32f4xx_ll_sdmmc.c ****   }
 151              		.loc 1 1324 5 view .LVU39
1324:Drivers/STM32F4xx_HAL_Driver/Src/stm32f4xx_ll_sdmmc.c ****   }
 152              		.loc 1 1324 12 is_stmt 0 view .LVU40
 153 0040 1846     		mov	r0, r3
 154              	.LVL11:
1324:Drivers/STM32F4xx_HAL_Driver/Src/stm32f4xx_ll_sdmmc.c ****   }
 155              		.loc 1 1324 12 view .LVU41
 156 0042 7047     		bx	lr
 157              	.LVL12:
 158              	.L14:
1328:Drivers/STM32F4xx_HAL_Driver/Src/stm32f4xx_ll_sdmmc.c ****     
 159              		.loc 1 1328 5 is_stmt 1 view .LVU42
 160 0044 0123     		movs	r3, #1
 161 0046 8363     		str	r3, [r0, #56]
1330:Drivers/STM32F4xx_HAL_Driver/Src/stm32f4xx_ll_sdmmc.c ****   }
 162              		.loc 1 1330 5 view .LVU43
1330:Drivers/STM32F4xx_HAL_Driver/Src/stm32f4xx_ll_sdmmc.c ****   }
 163              		.loc 1 1330 12 is_stmt 0 view .LVU44
 164 0048 1846     		mov	r0, r3
 165              	.LVL13:
1330:Drivers/STM32F4xx_HAL_Driver/Src/stm32f4xx_ll_sdmmc.c ****   }
 166              		.loc 1 1330 12 view .LVU45
 167 004a 7047     		bx	lr
 168              	.LVL14:
 169              	.L12:
1315:Drivers/STM32F4xx_HAL_Driver/Src/stm32f4xx_ll_sdmmc.c ****     }
 170              		.loc 1 1315 14 view .LVU46
 171 004c 4FF00040 		mov	r0, #-2147483648
 172              	.LVL15:
1340:Drivers/STM32F4xx_HAL_Driver/Src/stm32f4xx_ll_sdmmc.c **** }
 173              		.loc 1 1340 1 view .LVU47
 174 0050 7047     		bx	lr
 175              	.L16:
 176 0052 00BF     		.align	2
 177              	.L15:
 178 0054 00000000 		.word	SystemCoreClock
 179 0058 D34D6210 		.word	274877907
 180              		.cfi_endproc
 181              	.LFE166:
 183              		.section	.text.SDMMC_GetCmdResp3,"ax",%progbits
 184              		.align	1
 185              		.syntax unified
 186              		.thumb
 187              		.thumb_func
 188              		.fpu fpv4-sp-d16
 190              	SDMMC_GetCmdResp3:
 191              	.LVL16:
 192              	.LFB167:
ARM GAS  /tmp/ccDCAHOp.s 			page 28


1341:Drivers/STM32F4xx_HAL_Driver/Src/stm32f4xx_ll_sdmmc.c **** 
1342:Drivers/STM32F4xx_HAL_Driver/Src/stm32f4xx_ll_sdmmc.c **** /**
1343:Drivers/STM32F4xx_HAL_Driver/Src/stm32f4xx_ll_sdmmc.c ****   * @brief  Checks for error conditions for R3 (OCR) response.
1344:Drivers/STM32F4xx_HAL_Driver/Src/stm32f4xx_ll_sdmmc.c ****   * @param  hsd SD handle
1345:Drivers/STM32F4xx_HAL_Driver/Src/stm32f4xx_ll_sdmmc.c ****   * @retval SD Card error state
1346:Drivers/STM32F4xx_HAL_Driver/Src/stm32f4xx_ll_sdmmc.c ****   */
1347:Drivers/STM32F4xx_HAL_Driver/Src/stm32f4xx_ll_sdmmc.c **** static uint32_t SDMMC_GetCmdResp3(SDIO_TypeDef *SDIOx)
1348:Drivers/STM32F4xx_HAL_Driver/Src/stm32f4xx_ll_sdmmc.c **** {
 193              		.loc 1 1348 1 is_stmt 1 view -0
 194              		.cfi_startproc
 195              		@ args = 0, pretend = 0, frame = 0
 196              		@ frame_needed = 0, uses_anonymous_args = 0
 197              		@ link register save eliminated.
1349:Drivers/STM32F4xx_HAL_Driver/Src/stm32f4xx_ll_sdmmc.c ****   /* 8 is the number of required instructions cycles for the below loop statement.
1350:Drivers/STM32F4xx_HAL_Driver/Src/stm32f4xx_ll_sdmmc.c ****   The SDMMC_CMDTIMEOUT is expressed in ms */
1351:Drivers/STM32F4xx_HAL_Driver/Src/stm32f4xx_ll_sdmmc.c ****   register uint32_t count = SDIO_CMDTIMEOUT * (SystemCoreClock / 8U /1000U);
 198              		.loc 1 1351 3 view .LVU49
 199              		.loc 1 1351 69 is_stmt 0 view .LVU50
 200 0000 104B     		ldr	r3, .L23
 201 0002 1B68     		ldr	r3, [r3]
 202 0004 104A     		ldr	r2, .L23+4
 203 0006 A2FB0323 		umull	r2, r3, r2, r3
 204 000a 5A0A     		lsrs	r2, r3, #9
 205              		.loc 1 1351 21 view .LVU51
 206 000c 41F28833 		movw	r3, #5000
 207 0010 03FB02F3 		mul	r3, r3, r2
 208              	.LVL17:
 209              	.L19:
1352:Drivers/STM32F4xx_HAL_Driver/Src/stm32f4xx_ll_sdmmc.c ****   
1353:Drivers/STM32F4xx_HAL_Driver/Src/stm32f4xx_ll_sdmmc.c ****   do
 210              		.loc 1 1353 3 is_stmt 1 view .LVU52
1354:Drivers/STM32F4xx_HAL_Driver/Src/stm32f4xx_ll_sdmmc.c ****   {
1355:Drivers/STM32F4xx_HAL_Driver/Src/stm32f4xx_ll_sdmmc.c ****     if (count-- == 0U)
 211              		.loc 1 1355 5 view .LVU53
 212              		.loc 1 1355 14 is_stmt 0 view .LVU54
 213 0014 5A1E     		subs	r2, r3, #1
 214              	.LVL18:
 215              		.loc 1 1355 8 view .LVU55
 216 0016 8BB1     		cbz	r3, .L21
1356:Drivers/STM32F4xx_HAL_Driver/Src/stm32f4xx_ll_sdmmc.c ****     {
1357:Drivers/STM32F4xx_HAL_Driver/Src/stm32f4xx_ll_sdmmc.c ****       return SDMMC_ERROR_TIMEOUT;
1358:Drivers/STM32F4xx_HAL_Driver/Src/stm32f4xx_ll_sdmmc.c ****     }
1359:Drivers/STM32F4xx_HAL_Driver/Src/stm32f4xx_ll_sdmmc.c ****     
1360:Drivers/STM32F4xx_HAL_Driver/Src/stm32f4xx_ll_sdmmc.c ****   }while(!__SDIO_GET_FLAG(SDIOx, SDIO_FLAG_CCRCFAIL | SDIO_FLAG_CMDREND | SDIO_FLAG_CTIMEOUT));
 217              		.loc 1 1360 11 view .LVU56
 218 0018 416B     		ldr	r1, [r0, #52]
1355:Drivers/STM32F4xx_HAL_Driver/Src/stm32f4xx_ll_sdmmc.c ****     {
 219              		.loc 1 1355 14 view .LVU57
 220 001a 1346     		mov	r3, r2
 221              		.loc 1 1360 3 view .LVU58
 222 001c 11F0450F 		tst	r1, #69
 223 0020 F8D0     		beq	.L19
1361:Drivers/STM32F4xx_HAL_Driver/Src/stm32f4xx_ll_sdmmc.c ****   
1362:Drivers/STM32F4xx_HAL_Driver/Src/stm32f4xx_ll_sdmmc.c ****   if(__SDIO_GET_FLAG(SDIOx, SDIO_FLAG_CTIMEOUT))
 224              		.loc 1 1362 3 is_stmt 1 view .LVU59
 225              		.loc 1 1362 6 is_stmt 0 view .LVU60
 226 0022 436B     		ldr	r3, [r0, #52]
ARM GAS  /tmp/ccDCAHOp.s 			page 29


 227              		.loc 1 1362 5 view .LVU61
 228 0024 13F0040F 		tst	r3, #4
 229 0028 04D1     		bne	.L22
1363:Drivers/STM32F4xx_HAL_Driver/Src/stm32f4xx_ll_sdmmc.c ****   {
1364:Drivers/STM32F4xx_HAL_Driver/Src/stm32f4xx_ll_sdmmc.c ****     __SDIO_CLEAR_FLAG(SDIOx, SDIO_FLAG_CTIMEOUT);
1365:Drivers/STM32F4xx_HAL_Driver/Src/stm32f4xx_ll_sdmmc.c ****     
1366:Drivers/STM32F4xx_HAL_Driver/Src/stm32f4xx_ll_sdmmc.c ****     return SDMMC_ERROR_CMD_RSP_TIMEOUT;
1367:Drivers/STM32F4xx_HAL_Driver/Src/stm32f4xx_ll_sdmmc.c ****   }
1368:Drivers/STM32F4xx_HAL_Driver/Src/stm32f4xx_ll_sdmmc.c ****   else
1369:Drivers/STM32F4xx_HAL_Driver/Src/stm32f4xx_ll_sdmmc.c ****  
1370:Drivers/STM32F4xx_HAL_Driver/Src/stm32f4xx_ll_sdmmc.c ****   {  
1371:Drivers/STM32F4xx_HAL_Driver/Src/stm32f4xx_ll_sdmmc.c ****     /* Clear all the static flags */
1372:Drivers/STM32F4xx_HAL_Driver/Src/stm32f4xx_ll_sdmmc.c ****     __SDIO_CLEAR_FLAG(SDIOx, SDIO_STATIC_FLAGS);
 230              		.loc 1 1372 5 is_stmt 1 view .LVU62
 231 002a 40F2FF53 		movw	r3, #1535
 232 002e 8363     		str	r3, [r0, #56]
1373:Drivers/STM32F4xx_HAL_Driver/Src/stm32f4xx_ll_sdmmc.c ****   }
1374:Drivers/STM32F4xx_HAL_Driver/Src/stm32f4xx_ll_sdmmc.c ****   
1375:Drivers/STM32F4xx_HAL_Driver/Src/stm32f4xx_ll_sdmmc.c ****   return SDMMC_ERROR_NONE;
 233              		.loc 1 1375 3 view .LVU63
 234              		.loc 1 1375 10 is_stmt 0 view .LVU64
 235 0030 0020     		movs	r0, #0
 236              	.LVL19:
 237              		.loc 1 1375 10 view .LVU65
 238 0032 7047     		bx	lr
 239              	.LVL20:
 240              	.L22:
1364:Drivers/STM32F4xx_HAL_Driver/Src/stm32f4xx_ll_sdmmc.c ****     
 241              		.loc 1 1364 5 is_stmt 1 view .LVU66
 242 0034 0423     		movs	r3, #4
 243 0036 8363     		str	r3, [r0, #56]
1366:Drivers/STM32F4xx_HAL_Driver/Src/stm32f4xx_ll_sdmmc.c ****   }
 244              		.loc 1 1366 5 view .LVU67
1366:Drivers/STM32F4xx_HAL_Driver/Src/stm32f4xx_ll_sdmmc.c ****   }
 245              		.loc 1 1366 12 is_stmt 0 view .LVU68
 246 0038 1846     		mov	r0, r3
 247              	.LVL21:
1366:Drivers/STM32F4xx_HAL_Driver/Src/stm32f4xx_ll_sdmmc.c ****   }
 248              		.loc 1 1366 12 view .LVU69
 249 003a 7047     		bx	lr
 250              	.LVL22:
 251              	.L21:
1357:Drivers/STM32F4xx_HAL_Driver/Src/stm32f4xx_ll_sdmmc.c ****     }
 252              		.loc 1 1357 14 view .LVU70
 253 003c 4FF00040 		mov	r0, #-2147483648
 254              	.LVL23:
1376:Drivers/STM32F4xx_HAL_Driver/Src/stm32f4xx_ll_sdmmc.c **** }
 255              		.loc 1 1376 1 view .LVU71
 256 0040 7047     		bx	lr
 257              	.L24:
 258 0042 00BF     		.align	2
 259              	.L23:
 260 0044 00000000 		.word	SystemCoreClock
 261 0048 D34D6210 		.word	274877907
 262              		.cfi_endproc
 263              	.LFE167:
 265              		.section	.text.SDMMC_GetCmdResp7,"ax",%progbits
ARM GAS  /tmp/ccDCAHOp.s 			page 30


 266              		.align	1
 267              		.syntax unified
 268              		.thumb
 269              		.thumb_func
 270              		.fpu fpv4-sp-d16
 272              	SDMMC_GetCmdResp7:
 273              	.LVL24:
 274              	.LFB169:
1377:Drivers/STM32F4xx_HAL_Driver/Src/stm32f4xx_ll_sdmmc.c **** 
1378:Drivers/STM32F4xx_HAL_Driver/Src/stm32f4xx_ll_sdmmc.c **** /**
1379:Drivers/STM32F4xx_HAL_Driver/Src/stm32f4xx_ll_sdmmc.c ****   * @brief  Checks for error conditions for R6 (RCA) response.
1380:Drivers/STM32F4xx_HAL_Driver/Src/stm32f4xx_ll_sdmmc.c ****   * @param  hsd SD handle
1381:Drivers/STM32F4xx_HAL_Driver/Src/stm32f4xx_ll_sdmmc.c ****   * @param  SD_CMD The sent command index
1382:Drivers/STM32F4xx_HAL_Driver/Src/stm32f4xx_ll_sdmmc.c ****   * @param  pRCA Pointer to the variable that will contain the SD card relative 
1383:Drivers/STM32F4xx_HAL_Driver/Src/stm32f4xx_ll_sdmmc.c ****   *         address RCA   
1384:Drivers/STM32F4xx_HAL_Driver/Src/stm32f4xx_ll_sdmmc.c ****   * @retval SD Card error state
1385:Drivers/STM32F4xx_HAL_Driver/Src/stm32f4xx_ll_sdmmc.c ****   */
1386:Drivers/STM32F4xx_HAL_Driver/Src/stm32f4xx_ll_sdmmc.c **** static uint32_t SDMMC_GetCmdResp6(SDIO_TypeDef *SDIOx, uint8_t SD_CMD, uint16_t *pRCA)
1387:Drivers/STM32F4xx_HAL_Driver/Src/stm32f4xx_ll_sdmmc.c **** {
1388:Drivers/STM32F4xx_HAL_Driver/Src/stm32f4xx_ll_sdmmc.c ****   uint32_t response_r1;
1389:Drivers/STM32F4xx_HAL_Driver/Src/stm32f4xx_ll_sdmmc.c **** 
1390:Drivers/STM32F4xx_HAL_Driver/Src/stm32f4xx_ll_sdmmc.c ****   /* 8 is the number of required instructions cycles for the below loop statement.
1391:Drivers/STM32F4xx_HAL_Driver/Src/stm32f4xx_ll_sdmmc.c ****   The SDMMC_CMDTIMEOUT is expressed in ms */
1392:Drivers/STM32F4xx_HAL_Driver/Src/stm32f4xx_ll_sdmmc.c ****   register uint32_t count = SDIO_CMDTIMEOUT * (SystemCoreClock / 8U /1000U);
1393:Drivers/STM32F4xx_HAL_Driver/Src/stm32f4xx_ll_sdmmc.c ****   
1394:Drivers/STM32F4xx_HAL_Driver/Src/stm32f4xx_ll_sdmmc.c ****   do
1395:Drivers/STM32F4xx_HAL_Driver/Src/stm32f4xx_ll_sdmmc.c ****   {
1396:Drivers/STM32F4xx_HAL_Driver/Src/stm32f4xx_ll_sdmmc.c ****     if (count-- == 0U)
1397:Drivers/STM32F4xx_HAL_Driver/Src/stm32f4xx_ll_sdmmc.c ****     {
1398:Drivers/STM32F4xx_HAL_Driver/Src/stm32f4xx_ll_sdmmc.c ****       return SDMMC_ERROR_TIMEOUT;
1399:Drivers/STM32F4xx_HAL_Driver/Src/stm32f4xx_ll_sdmmc.c ****     }
1400:Drivers/STM32F4xx_HAL_Driver/Src/stm32f4xx_ll_sdmmc.c ****     
1401:Drivers/STM32F4xx_HAL_Driver/Src/stm32f4xx_ll_sdmmc.c ****   }while(!__SDIO_GET_FLAG(SDIOx, SDIO_FLAG_CCRCFAIL | SDIO_FLAG_CMDREND | SDIO_FLAG_CTIMEOUT));
1402:Drivers/STM32F4xx_HAL_Driver/Src/stm32f4xx_ll_sdmmc.c ****   
1403:Drivers/STM32F4xx_HAL_Driver/Src/stm32f4xx_ll_sdmmc.c ****   if(__SDIO_GET_FLAG(SDIOx, SDIO_FLAG_CTIMEOUT))
1404:Drivers/STM32F4xx_HAL_Driver/Src/stm32f4xx_ll_sdmmc.c ****   {
1405:Drivers/STM32F4xx_HAL_Driver/Src/stm32f4xx_ll_sdmmc.c ****     __SDIO_CLEAR_FLAG(SDIOx, SDIO_FLAG_CTIMEOUT);
1406:Drivers/STM32F4xx_HAL_Driver/Src/stm32f4xx_ll_sdmmc.c ****     
1407:Drivers/STM32F4xx_HAL_Driver/Src/stm32f4xx_ll_sdmmc.c ****     return SDMMC_ERROR_CMD_RSP_TIMEOUT;
1408:Drivers/STM32F4xx_HAL_Driver/Src/stm32f4xx_ll_sdmmc.c ****   }
1409:Drivers/STM32F4xx_HAL_Driver/Src/stm32f4xx_ll_sdmmc.c ****   else if(__SDIO_GET_FLAG(SDIOx, SDIO_FLAG_CCRCFAIL))
1410:Drivers/STM32F4xx_HAL_Driver/Src/stm32f4xx_ll_sdmmc.c ****   {
1411:Drivers/STM32F4xx_HAL_Driver/Src/stm32f4xx_ll_sdmmc.c ****     __SDIO_CLEAR_FLAG(SDIOx, SDIO_FLAG_CCRCFAIL);
1412:Drivers/STM32F4xx_HAL_Driver/Src/stm32f4xx_ll_sdmmc.c ****     
1413:Drivers/STM32F4xx_HAL_Driver/Src/stm32f4xx_ll_sdmmc.c ****     return SDMMC_ERROR_CMD_CRC_FAIL;
1414:Drivers/STM32F4xx_HAL_Driver/Src/stm32f4xx_ll_sdmmc.c ****   }
1415:Drivers/STM32F4xx_HAL_Driver/Src/stm32f4xx_ll_sdmmc.c ****   
1416:Drivers/STM32F4xx_HAL_Driver/Src/stm32f4xx_ll_sdmmc.c ****   /* Check response received is of desired command */
1417:Drivers/STM32F4xx_HAL_Driver/Src/stm32f4xx_ll_sdmmc.c ****   if(SDIO_GetCommandResponse(SDIOx) != SD_CMD)
1418:Drivers/STM32F4xx_HAL_Driver/Src/stm32f4xx_ll_sdmmc.c ****   {
1419:Drivers/STM32F4xx_HAL_Driver/Src/stm32f4xx_ll_sdmmc.c ****     return SDMMC_ERROR_CMD_CRC_FAIL;
1420:Drivers/STM32F4xx_HAL_Driver/Src/stm32f4xx_ll_sdmmc.c ****   }
1421:Drivers/STM32F4xx_HAL_Driver/Src/stm32f4xx_ll_sdmmc.c ****   
1422:Drivers/STM32F4xx_HAL_Driver/Src/stm32f4xx_ll_sdmmc.c ****   /* Clear all the static flags */
1423:Drivers/STM32F4xx_HAL_Driver/Src/stm32f4xx_ll_sdmmc.c ****   __SDIO_CLEAR_FLAG(SDIOx, SDIO_STATIC_FLAGS);
1424:Drivers/STM32F4xx_HAL_Driver/Src/stm32f4xx_ll_sdmmc.c ****   
1425:Drivers/STM32F4xx_HAL_Driver/Src/stm32f4xx_ll_sdmmc.c ****   /* We have received response, retrieve it.  */
ARM GAS  /tmp/ccDCAHOp.s 			page 31


1426:Drivers/STM32F4xx_HAL_Driver/Src/stm32f4xx_ll_sdmmc.c ****   response_r1 = SDIO_GetResponse(SDIOx, SDIO_RESP1);
1427:Drivers/STM32F4xx_HAL_Driver/Src/stm32f4xx_ll_sdmmc.c ****   
1428:Drivers/STM32F4xx_HAL_Driver/Src/stm32f4xx_ll_sdmmc.c ****   if((response_r1 & (SDMMC_R6_GENERAL_UNKNOWN_ERROR | SDMMC_R6_ILLEGAL_CMD | SDMMC_R6_COM_CRC_FAILE
1429:Drivers/STM32F4xx_HAL_Driver/Src/stm32f4xx_ll_sdmmc.c ****   {
1430:Drivers/STM32F4xx_HAL_Driver/Src/stm32f4xx_ll_sdmmc.c ****     *pRCA = (uint16_t) (response_r1 >> 16);
1431:Drivers/STM32F4xx_HAL_Driver/Src/stm32f4xx_ll_sdmmc.c ****     
1432:Drivers/STM32F4xx_HAL_Driver/Src/stm32f4xx_ll_sdmmc.c ****     return SDMMC_ERROR_NONE;
1433:Drivers/STM32F4xx_HAL_Driver/Src/stm32f4xx_ll_sdmmc.c ****   }
1434:Drivers/STM32F4xx_HAL_Driver/Src/stm32f4xx_ll_sdmmc.c ****   else if((response_r1 & SDMMC_R6_ILLEGAL_CMD) == SDMMC_R6_ILLEGAL_CMD)
1435:Drivers/STM32F4xx_HAL_Driver/Src/stm32f4xx_ll_sdmmc.c ****   {
1436:Drivers/STM32F4xx_HAL_Driver/Src/stm32f4xx_ll_sdmmc.c ****     return SDMMC_ERROR_ILLEGAL_CMD;
1437:Drivers/STM32F4xx_HAL_Driver/Src/stm32f4xx_ll_sdmmc.c ****   }
1438:Drivers/STM32F4xx_HAL_Driver/Src/stm32f4xx_ll_sdmmc.c ****   else if((response_r1 & SDMMC_R6_COM_CRC_FAILED) == SDMMC_R6_COM_CRC_FAILED)
1439:Drivers/STM32F4xx_HAL_Driver/Src/stm32f4xx_ll_sdmmc.c ****   {
1440:Drivers/STM32F4xx_HAL_Driver/Src/stm32f4xx_ll_sdmmc.c ****     return SDMMC_ERROR_COM_CRC_FAILED;
1441:Drivers/STM32F4xx_HAL_Driver/Src/stm32f4xx_ll_sdmmc.c ****   }
1442:Drivers/STM32F4xx_HAL_Driver/Src/stm32f4xx_ll_sdmmc.c ****   else
1443:Drivers/STM32F4xx_HAL_Driver/Src/stm32f4xx_ll_sdmmc.c ****   {
1444:Drivers/STM32F4xx_HAL_Driver/Src/stm32f4xx_ll_sdmmc.c ****     return SDMMC_ERROR_GENERAL_UNKNOWN_ERR;
1445:Drivers/STM32F4xx_HAL_Driver/Src/stm32f4xx_ll_sdmmc.c ****   }
1446:Drivers/STM32F4xx_HAL_Driver/Src/stm32f4xx_ll_sdmmc.c **** }
1447:Drivers/STM32F4xx_HAL_Driver/Src/stm32f4xx_ll_sdmmc.c **** 
1448:Drivers/STM32F4xx_HAL_Driver/Src/stm32f4xx_ll_sdmmc.c **** /**
1449:Drivers/STM32F4xx_HAL_Driver/Src/stm32f4xx_ll_sdmmc.c ****   * @brief  Checks for error conditions for R7 response.
1450:Drivers/STM32F4xx_HAL_Driver/Src/stm32f4xx_ll_sdmmc.c ****   * @param  hsd SD handle
1451:Drivers/STM32F4xx_HAL_Driver/Src/stm32f4xx_ll_sdmmc.c ****   * @retval SD Card error state
1452:Drivers/STM32F4xx_HAL_Driver/Src/stm32f4xx_ll_sdmmc.c ****   */
1453:Drivers/STM32F4xx_HAL_Driver/Src/stm32f4xx_ll_sdmmc.c **** static uint32_t SDMMC_GetCmdResp7(SDIO_TypeDef *SDIOx)
1454:Drivers/STM32F4xx_HAL_Driver/Src/stm32f4xx_ll_sdmmc.c **** {
 275              		.loc 1 1454 1 is_stmt 1 view -0
 276              		.cfi_startproc
 277              		@ args = 0, pretend = 0, frame = 0
 278              		@ frame_needed = 0, uses_anonymous_args = 0
 279              		@ link register save eliminated.
1455:Drivers/STM32F4xx_HAL_Driver/Src/stm32f4xx_ll_sdmmc.c ****   /* 8 is the number of required instructions cycles for the below loop statement.
1456:Drivers/STM32F4xx_HAL_Driver/Src/stm32f4xx_ll_sdmmc.c ****   The SDIO_CMDTIMEOUT is expressed in ms */
1457:Drivers/STM32F4xx_HAL_Driver/Src/stm32f4xx_ll_sdmmc.c ****   register uint32_t count = SDIO_CMDTIMEOUT * (SystemCoreClock / 8U /1000U);
 280              		.loc 1 1457 3 view .LVU73
 281              		.loc 1 1457 69 is_stmt 0 view .LVU74
 282 0000 124B     		ldr	r3, .L32
 283 0002 1B68     		ldr	r3, [r3]
 284 0004 124A     		ldr	r2, .L32+4
 285 0006 A2FB0323 		umull	r2, r3, r2, r3
 286 000a 5A0A     		lsrs	r2, r3, #9
 287              		.loc 1 1457 21 view .LVU75
 288 000c 41F28833 		movw	r3, #5000
 289 0010 03FB02F3 		mul	r3, r3, r2
 290              	.LVL25:
 291              	.L27:
1458:Drivers/STM32F4xx_HAL_Driver/Src/stm32f4xx_ll_sdmmc.c ****   
1459:Drivers/STM32F4xx_HAL_Driver/Src/stm32f4xx_ll_sdmmc.c ****   do
 292              		.loc 1 1459 3 is_stmt 1 view .LVU76
1460:Drivers/STM32F4xx_HAL_Driver/Src/stm32f4xx_ll_sdmmc.c ****   {
1461:Drivers/STM32F4xx_HAL_Driver/Src/stm32f4xx_ll_sdmmc.c ****     if (count-- == 0U)
 293              		.loc 1 1461 5 view .LVU77
 294              		.loc 1 1461 14 is_stmt 0 view .LVU78
 295 0014 5A1E     		subs	r2, r3, #1
ARM GAS  /tmp/ccDCAHOp.s 			page 32


 296              	.LVL26:
 297              		.loc 1 1461 8 view .LVU79
 298 0016 A3B1     		cbz	r3, .L29
1462:Drivers/STM32F4xx_HAL_Driver/Src/stm32f4xx_ll_sdmmc.c ****     {
1463:Drivers/STM32F4xx_HAL_Driver/Src/stm32f4xx_ll_sdmmc.c ****       return SDMMC_ERROR_TIMEOUT;
1464:Drivers/STM32F4xx_HAL_Driver/Src/stm32f4xx_ll_sdmmc.c ****     }
1465:Drivers/STM32F4xx_HAL_Driver/Src/stm32f4xx_ll_sdmmc.c ****     
1466:Drivers/STM32F4xx_HAL_Driver/Src/stm32f4xx_ll_sdmmc.c ****   }while(!__SDIO_GET_FLAG(SDIOx, SDIO_FLAG_CCRCFAIL | SDIO_FLAG_CMDREND | SDIO_FLAG_CTIMEOUT));
 299              		.loc 1 1466 11 view .LVU80
 300 0018 416B     		ldr	r1, [r0, #52]
1461:Drivers/STM32F4xx_HAL_Driver/Src/stm32f4xx_ll_sdmmc.c ****     {
 301              		.loc 1 1461 14 view .LVU81
 302 001a 1346     		mov	r3, r2
 303              		.loc 1 1466 3 view .LVU82
 304 001c 11F0450F 		tst	r1, #69
 305 0020 F8D0     		beq	.L27
1467:Drivers/STM32F4xx_HAL_Driver/Src/stm32f4xx_ll_sdmmc.c **** 
1468:Drivers/STM32F4xx_HAL_Driver/Src/stm32f4xx_ll_sdmmc.c ****   if(__SDIO_GET_FLAG(SDIOx, SDIO_FLAG_CTIMEOUT))
 306              		.loc 1 1468 3 is_stmt 1 view .LVU83
 307              		.loc 1 1468 6 is_stmt 0 view .LVU84
 308 0022 436B     		ldr	r3, [r0, #52]
 309              		.loc 1 1468 5 view .LVU85
 310 0024 13F0040F 		tst	r3, #4
 311 0028 07D1     		bne	.L31
1469:Drivers/STM32F4xx_HAL_Driver/Src/stm32f4xx_ll_sdmmc.c ****   {
1470:Drivers/STM32F4xx_HAL_Driver/Src/stm32f4xx_ll_sdmmc.c ****     /* Card is SD V2.0 compliant */
1471:Drivers/STM32F4xx_HAL_Driver/Src/stm32f4xx_ll_sdmmc.c ****     __SDIO_CLEAR_FLAG(SDIOx, SDIO_FLAG_CMDREND);
1472:Drivers/STM32F4xx_HAL_Driver/Src/stm32f4xx_ll_sdmmc.c ****     
1473:Drivers/STM32F4xx_HAL_Driver/Src/stm32f4xx_ll_sdmmc.c ****     return SDMMC_ERROR_CMD_RSP_TIMEOUT;
1474:Drivers/STM32F4xx_HAL_Driver/Src/stm32f4xx_ll_sdmmc.c ****   }
1475:Drivers/STM32F4xx_HAL_Driver/Src/stm32f4xx_ll_sdmmc.c ****   
1476:Drivers/STM32F4xx_HAL_Driver/Src/stm32f4xx_ll_sdmmc.c ****   if(__SDIO_GET_FLAG(SDIOx, SDIO_FLAG_CMDREND))
 312              		.loc 1 1476 3 is_stmt 1 view .LVU86
 313              		.loc 1 1476 6 is_stmt 0 view .LVU87
 314 002a 436B     		ldr	r3, [r0, #52]
 315              		.loc 1 1476 5 view .LVU88
 316 002c 13F0400F 		tst	r3, #64
 317 0030 0AD0     		beq	.L30
1477:Drivers/STM32F4xx_HAL_Driver/Src/stm32f4xx_ll_sdmmc.c ****   {
1478:Drivers/STM32F4xx_HAL_Driver/Src/stm32f4xx_ll_sdmmc.c ****     /* Card is SD V2.0 compliant */
1479:Drivers/STM32F4xx_HAL_Driver/Src/stm32f4xx_ll_sdmmc.c ****     __SDIO_CLEAR_FLAG(SDIOx, SDIO_FLAG_CMDREND);
 318              		.loc 1 1479 5 is_stmt 1 view .LVU89
 319 0032 4023     		movs	r3, #64
 320 0034 8363     		str	r3, [r0, #56]
1480:Drivers/STM32F4xx_HAL_Driver/Src/stm32f4xx_ll_sdmmc.c ****   }
1481:Drivers/STM32F4xx_HAL_Driver/Src/stm32f4xx_ll_sdmmc.c ****   
1482:Drivers/STM32F4xx_HAL_Driver/Src/stm32f4xx_ll_sdmmc.c ****   return SDMMC_ERROR_NONE;
 321              		.loc 1 1482 10 is_stmt 0 view .LVU90
 322 0036 0020     		movs	r0, #0
 323              	.LVL27:
 324              		.loc 1 1482 10 view .LVU91
 325 0038 7047     		bx	lr
 326              	.LVL28:
 327              	.L31:
1471:Drivers/STM32F4xx_HAL_Driver/Src/stm32f4xx_ll_sdmmc.c ****     
 328              		.loc 1 1471 5 is_stmt 1 view .LVU92
 329 003a 4023     		movs	r3, #64
ARM GAS  /tmp/ccDCAHOp.s 			page 33


 330 003c 8363     		str	r3, [r0, #56]
1473:Drivers/STM32F4xx_HAL_Driver/Src/stm32f4xx_ll_sdmmc.c ****   }
 331              		.loc 1 1473 5 view .LVU93
1473:Drivers/STM32F4xx_HAL_Driver/Src/stm32f4xx_ll_sdmmc.c ****   }
 332              		.loc 1 1473 12 is_stmt 0 view .LVU94
 333 003e 0420     		movs	r0, #4
 334              	.LVL29:
1473:Drivers/STM32F4xx_HAL_Driver/Src/stm32f4xx_ll_sdmmc.c ****   }
 335              		.loc 1 1473 12 view .LVU95
 336 0040 7047     		bx	lr
 337              	.LVL30:
 338              	.L29:
1463:Drivers/STM32F4xx_HAL_Driver/Src/stm32f4xx_ll_sdmmc.c ****     }
 339              		.loc 1 1463 14 view .LVU96
 340 0042 4FF00040 		mov	r0, #-2147483648
 341              	.LVL31:
1463:Drivers/STM32F4xx_HAL_Driver/Src/stm32f4xx_ll_sdmmc.c ****     }
 342              		.loc 1 1463 14 view .LVU97
 343 0046 7047     		bx	lr
 344              	.LVL32:
 345              	.L30:
 346              		.loc 1 1482 10 view .LVU98
 347 0048 0020     		movs	r0, #0
 348              	.LVL33:
1483:Drivers/STM32F4xx_HAL_Driver/Src/stm32f4xx_ll_sdmmc.c ****   
1484:Drivers/STM32F4xx_HAL_Driver/Src/stm32f4xx_ll_sdmmc.c **** }
 349              		.loc 1 1484 1 view .LVU99
 350 004a 7047     		bx	lr
 351              	.L33:
 352              		.align	2
 353              	.L32:
 354 004c 00000000 		.word	SystemCoreClock
 355 0050 D34D6210 		.word	274877907
 356              		.cfi_endproc
 357              	.LFE169:
 359              		.section	.text.SDIO_Init,"ax",%progbits
 360              		.align	1
 361              		.global	SDIO_Init
 362              		.syntax unified
 363              		.thumb
 364              		.thumb_func
 365              		.fpu fpv4-sp-d16
 367              	SDIO_Init:
 368              	.LVL34:
 369              	.LFB126:
 233:Drivers/STM32F4xx_HAL_Driver/Src/stm32f4xx_ll_sdmmc.c ****   uint32_t tmpreg = 0U;
 370              		.loc 1 233 1 is_stmt 1 view -0
 371              		.cfi_startproc
 372              		@ args = 28, pretend = 16, frame = 0
 373              		@ frame_needed = 0, uses_anonymous_args = 0
 374              		@ link register save eliminated.
 233:Drivers/STM32F4xx_HAL_Driver/Src/stm32f4xx_ll_sdmmc.c ****   uint32_t tmpreg = 0U;
 375              		.loc 1 233 1 is_stmt 0 view .LVU101
 376 0000 84B0     		sub	sp, sp, #16
 377              	.LCFI0:
 378              		.cfi_def_cfa_offset 16
 379 0002 10B4     		push	{r4}
ARM GAS  /tmp/ccDCAHOp.s 			page 34


 380              	.LCFI1:
 381              		.cfi_def_cfa_offset 20
 382              		.cfi_offset 4, -20
 383 0004 02AC     		add	r4, sp, #8
 384 0006 84E80E00 		stm	r4, {r1, r2, r3}
 234:Drivers/STM32F4xx_HAL_Driver/Src/stm32f4xx_ll_sdmmc.c **** 
 385              		.loc 1 234 3 is_stmt 1 view .LVU102
 386              	.LVL35:
 237:Drivers/STM32F4xx_HAL_Driver/Src/stm32f4xx_ll_sdmmc.c ****   assert_param(IS_SDIO_CLOCK_EDGE(Init.ClockEdge)); 
 387              		.loc 1 237 3 view .LVU103
 238:Drivers/STM32F4xx_HAL_Driver/Src/stm32f4xx_ll_sdmmc.c ****   assert_param(IS_SDIO_CLOCK_BYPASS(Init.ClockBypass));
 388              		.loc 1 238 3 view .LVU104
 239:Drivers/STM32F4xx_HAL_Driver/Src/stm32f4xx_ll_sdmmc.c ****   assert_param(IS_SDIO_CLOCK_POWER_SAVE(Init.ClockPowerSave));
 389              		.loc 1 239 3 view .LVU105
 240:Drivers/STM32F4xx_HAL_Driver/Src/stm32f4xx_ll_sdmmc.c ****   assert_param(IS_SDIO_BUS_WIDE(Init.BusWide));
 390              		.loc 1 240 3 view .LVU106
 241:Drivers/STM32F4xx_HAL_Driver/Src/stm32f4xx_ll_sdmmc.c ****   assert_param(IS_SDIO_HARDWARE_FLOW_CONTROL(Init.HardwareFlowControl));
 391              		.loc 1 241 3 view .LVU107
 242:Drivers/STM32F4xx_HAL_Driver/Src/stm32f4xx_ll_sdmmc.c ****   assert_param(IS_SDIO_CLKDIV(Init.ClockDiv));
 392              		.loc 1 242 3 view .LVU108
 243:Drivers/STM32F4xx_HAL_Driver/Src/stm32f4xx_ll_sdmmc.c ****   
 393              		.loc 1 243 3 view .LVU109
 246:Drivers/STM32F4xx_HAL_Driver/Src/stm32f4xx_ll_sdmmc.c ****              Init.ClockBypass         |\
 394              		.loc 1 246 3 view .LVU110
 246:Drivers/STM32F4xx_HAL_Driver/Src/stm32f4xx_ll_sdmmc.c ****              Init.ClockBypass         |\
 395              		.loc 1 246 39 is_stmt 0 view .LVU111
 396 000a 0B46     		mov	r3, r1
 397 000c 039A     		ldr	r2, [sp, #12]
 398 000e 1343     		orrs	r3, r3, r2
 248:Drivers/STM32F4xx_HAL_Driver/Src/stm32f4xx_ll_sdmmc.c ****              Init.BusWide             |\
 399              		.loc 1 248 18 view .LVU112
 400 0010 049A     		ldr	r2, [sp, #16]
 247:Drivers/STM32F4xx_HAL_Driver/Src/stm32f4xx_ll_sdmmc.c ****              Init.ClockPowerSave      |\
 401              		.loc 1 247 39 view .LVU113
 402 0012 1343     		orrs	r3, r3, r2
 249:Drivers/STM32F4xx_HAL_Driver/Src/stm32f4xx_ll_sdmmc.c ****              Init.HardwareFlowControl |\
 403              		.loc 1 249 18 view .LVU114
 404 0014 059A     		ldr	r2, [sp, #20]
 248:Drivers/STM32F4xx_HAL_Driver/Src/stm32f4xx_ll_sdmmc.c ****              Init.BusWide             |\
 405              		.loc 1 248 39 view .LVU115
 406 0016 1343     		orrs	r3, r3, r2
 250:Drivers/STM32F4xx_HAL_Driver/Src/stm32f4xx_ll_sdmmc.c ****              Init.ClockDiv
 407              		.loc 1 250 18 view .LVU116
 408 0018 069A     		ldr	r2, [sp, #24]
 249:Drivers/STM32F4xx_HAL_Driver/Src/stm32f4xx_ll_sdmmc.c ****              Init.HardwareFlowControl |\
 409              		.loc 1 249 39 view .LVU117
 410 001a 1343     		orrs	r3, r3, r2
 251:Drivers/STM32F4xx_HAL_Driver/Src/stm32f4xx_ll_sdmmc.c ****              ); 
 411              		.loc 1 251 18 view .LVU118
 412 001c 079A     		ldr	r2, [sp, #28]
 250:Drivers/STM32F4xx_HAL_Driver/Src/stm32f4xx_ll_sdmmc.c ****              Init.ClockDiv
 413              		.loc 1 250 39 view .LVU119
 414 001e 1343     		orrs	r3, r3, r2
 415              	.LVL36:
 255:Drivers/STM32F4xx_HAL_Driver/Src/stm32f4xx_ll_sdmmc.c **** 
 416              		.loc 1 255 3 is_stmt 1 view .LVU120
 417 0020 4268     		ldr	r2, [r0, #4]
ARM GAS  /tmp/ccDCAHOp.s 			page 35


 418 0022 22F4FD42 		bic	r2, r2, #32384
 419 0026 22F07F02 		bic	r2, r2, #127
 420 002a 1343     		orrs	r3, r3, r2
 421              	.LVL37:
 255:Drivers/STM32F4xx_HAL_Driver/Src/stm32f4xx_ll_sdmmc.c **** 
 422              		.loc 1 255 3 is_stmt 0 view .LVU121
 423 002c 4360     		str	r3, [r0, #4]
 257:Drivers/STM32F4xx_HAL_Driver/Src/stm32f4xx_ll_sdmmc.c **** }
 424              		.loc 1 257 3 is_stmt 1 view .LVU122
 258:Drivers/STM32F4xx_HAL_Driver/Src/stm32f4xx_ll_sdmmc.c **** 
 425              		.loc 1 258 1 is_stmt 0 view .LVU123
 426 002e 0020     		movs	r0, #0
 427              	.LVL38:
 258:Drivers/STM32F4xx_HAL_Driver/Src/stm32f4xx_ll_sdmmc.c **** 
 428              		.loc 1 258 1 view .LVU124
 429 0030 5DF8044B 		ldr	r4, [sp], #4
 430              	.LCFI2:
 431              		.cfi_restore 4
 432              		.cfi_def_cfa_offset 16
 433 0034 04B0     		add	sp, sp, #16
 434              	.LCFI3:
 435              		.cfi_def_cfa_offset 0
 436              	.LVL39:
 258:Drivers/STM32F4xx_HAL_Driver/Src/stm32f4xx_ll_sdmmc.c **** 
 437              		.loc 1 258 1 view .LVU125
 438 0036 7047     		bx	lr
 439              		.cfi_endproc
 440              	.LFE126:
 442              		.section	.text.SDIO_ReadFIFO,"ax",%progbits
 443              		.align	1
 444              		.global	SDIO_ReadFIFO
 445              		.syntax unified
 446              		.thumb
 447              		.thumb_func
 448              		.fpu fpv4-sp-d16
 450              	SDIO_ReadFIFO:
 451              	.LVL40:
 452              	.LFB127:
 286:Drivers/STM32F4xx_HAL_Driver/Src/stm32f4xx_ll_sdmmc.c ****   /* Read data from Rx FIFO */ 
 453              		.loc 1 286 1 is_stmt 1 view -0
 454              		.cfi_startproc
 455              		@ args = 0, pretend = 0, frame = 0
 456              		@ frame_needed = 0, uses_anonymous_args = 0
 457              		@ link register save eliminated.
 288:Drivers/STM32F4xx_HAL_Driver/Src/stm32f4xx_ll_sdmmc.c **** }
 458              		.loc 1 288 3 view .LVU127
 288:Drivers/STM32F4xx_HAL_Driver/Src/stm32f4xx_ll_sdmmc.c **** }
 459              		.loc 1 288 16 is_stmt 0 view .LVU128
 460 0000 D0F88000 		ldr	r0, [r0, #128]
 461              	.LVL41:
 289:Drivers/STM32F4xx_HAL_Driver/Src/stm32f4xx_ll_sdmmc.c **** 
 462              		.loc 1 289 1 view .LVU129
 463 0004 7047     		bx	lr
 464              		.cfi_endproc
 465              	.LFE127:
 467              		.section	.text.SDIO_WriteFIFO,"ax",%progbits
 468              		.align	1
ARM GAS  /tmp/ccDCAHOp.s 			page 36


 469              		.global	SDIO_WriteFIFO
 470              		.syntax unified
 471              		.thumb
 472              		.thumb_func
 473              		.fpu fpv4-sp-d16
 475              	SDIO_WriteFIFO:
 476              	.LVL42:
 477              	.LFB128:
 298:Drivers/STM32F4xx_HAL_Driver/Src/stm32f4xx_ll_sdmmc.c ****   /* Write data to FIFO */ 
 478              		.loc 1 298 1 is_stmt 1 view -0
 479              		.cfi_startproc
 480              		@ args = 0, pretend = 0, frame = 0
 481              		@ frame_needed = 0, uses_anonymous_args = 0
 482              		@ link register save eliminated.
 300:Drivers/STM32F4xx_HAL_Driver/Src/stm32f4xx_ll_sdmmc.c **** 
 483              		.loc 1 300 3 view .LVU131
 300:Drivers/STM32F4xx_HAL_Driver/Src/stm32f4xx_ll_sdmmc.c **** 
 484              		.loc 1 300 17 is_stmt 0 view .LVU132
 485 0000 0B68     		ldr	r3, [r1]
 300:Drivers/STM32F4xx_HAL_Driver/Src/stm32f4xx_ll_sdmmc.c **** 
 486              		.loc 1 300 15 view .LVU133
 487 0002 C0F88030 		str	r3, [r0, #128]
 302:Drivers/STM32F4xx_HAL_Driver/Src/stm32f4xx_ll_sdmmc.c **** }
 488              		.loc 1 302 3 is_stmt 1 view .LVU134
 303:Drivers/STM32F4xx_HAL_Driver/Src/stm32f4xx_ll_sdmmc.c **** 
 489              		.loc 1 303 1 is_stmt 0 view .LVU135
 490 0006 0020     		movs	r0, #0
 491              	.LVL43:
 303:Drivers/STM32F4xx_HAL_Driver/Src/stm32f4xx_ll_sdmmc.c **** 
 492              		.loc 1 303 1 view .LVU136
 493 0008 7047     		bx	lr
 494              		.cfi_endproc
 495              	.LFE128:
 497              		.section	.text.SDIO_PowerState_ON,"ax",%progbits
 498              		.align	1
 499              		.global	SDIO_PowerState_ON
 500              		.syntax unified
 501              		.thumb
 502              		.thumb_func
 503              		.fpu fpv4-sp-d16
 505              	SDIO_PowerState_ON:
 506              	.LVL44:
 507              	.LFB129:
 330:Drivers/STM32F4xx_HAL_Driver/Src/stm32f4xx_ll_sdmmc.c ****   /* Set power state to ON */ 
 508              		.loc 1 330 1 is_stmt 1 view -0
 509              		.cfi_startproc
 510              		@ args = 0, pretend = 0, frame = 0
 511              		@ frame_needed = 0, uses_anonymous_args = 0
 512              		@ link register save eliminated.
 332:Drivers/STM32F4xx_HAL_Driver/Src/stm32f4xx_ll_sdmmc.c ****   
 513              		.loc 1 332 3 view .LVU138
 332:Drivers/STM32F4xx_HAL_Driver/Src/stm32f4xx_ll_sdmmc.c ****   
 514              		.loc 1 332 16 is_stmt 0 view .LVU139
 515 0000 0323     		movs	r3, #3
 516 0002 0360     		str	r3, [r0]
 334:Drivers/STM32F4xx_HAL_Driver/Src/stm32f4xx_ll_sdmmc.c **** }
 517              		.loc 1 334 3 is_stmt 1 view .LVU140
ARM GAS  /tmp/ccDCAHOp.s 			page 37


 335:Drivers/STM32F4xx_HAL_Driver/Src/stm32f4xx_ll_sdmmc.c **** 
 518              		.loc 1 335 1 is_stmt 0 view .LVU141
 519 0004 0020     		movs	r0, #0
 520              	.LVL45:
 335:Drivers/STM32F4xx_HAL_Driver/Src/stm32f4xx_ll_sdmmc.c **** 
 521              		.loc 1 335 1 view .LVU142
 522 0006 7047     		bx	lr
 523              		.cfi_endproc
 524              	.LFE129:
 526              		.section	.text.SDIO_PowerState_OFF,"ax",%progbits
 527              		.align	1
 528              		.global	SDIO_PowerState_OFF
 529              		.syntax unified
 530              		.thumb
 531              		.thumb_func
 532              		.fpu fpv4-sp-d16
 534              	SDIO_PowerState_OFF:
 535              	.LVL46:
 536              	.LFB130:
 343:Drivers/STM32F4xx_HAL_Driver/Src/stm32f4xx_ll_sdmmc.c ****   /* Set power state to OFF */
 537              		.loc 1 343 1 is_stmt 1 view -0
 538              		.cfi_startproc
 539              		@ args = 0, pretend = 0, frame = 0
 540              		@ frame_needed = 0, uses_anonymous_args = 0
 541              		@ link register save eliminated.
 345:Drivers/STM32F4xx_HAL_Driver/Src/stm32f4xx_ll_sdmmc.c ****   
 542              		.loc 1 345 3 view .LVU144
 345:Drivers/STM32F4xx_HAL_Driver/Src/stm32f4xx_ll_sdmmc.c ****   
 543              		.loc 1 345 16 is_stmt 0 view .LVU145
 544 0000 0023     		movs	r3, #0
 545 0002 0360     		str	r3, [r0]
 347:Drivers/STM32F4xx_HAL_Driver/Src/stm32f4xx_ll_sdmmc.c **** }
 546              		.loc 1 347 3 is_stmt 1 view .LVU146
 348:Drivers/STM32F4xx_HAL_Driver/Src/stm32f4xx_ll_sdmmc.c **** 
 547              		.loc 1 348 1 is_stmt 0 view .LVU147
 548 0004 1846     		mov	r0, r3
 549              	.LVL47:
 348:Drivers/STM32F4xx_HAL_Driver/Src/stm32f4xx_ll_sdmmc.c **** 
 550              		.loc 1 348 1 view .LVU148
 551 0006 7047     		bx	lr
 552              		.cfi_endproc
 553              	.LFE130:
 555              		.section	.text.SDIO_GetPowerState,"ax",%progbits
 556              		.align	1
 557              		.global	SDIO_GetPowerState
 558              		.syntax unified
 559              		.thumb
 560              		.thumb_func
 561              		.fpu fpv4-sp-d16
 563              	SDIO_GetPowerState:
 564              	.LVL48:
 565              	.LFB131:
 360:Drivers/STM32F4xx_HAL_Driver/Src/stm32f4xx_ll_sdmmc.c ****   return (SDIOx->POWER & SDIO_POWER_PWRCTRL);
 566              		.loc 1 360 1 is_stmt 1 view -0
 567              		.cfi_startproc
 568              		@ args = 0, pretend = 0, frame = 0
 569              		@ frame_needed = 0, uses_anonymous_args = 0
ARM GAS  /tmp/ccDCAHOp.s 			page 38


 570              		@ link register save eliminated.
 361:Drivers/STM32F4xx_HAL_Driver/Src/stm32f4xx_ll_sdmmc.c **** }
 571              		.loc 1 361 3 view .LVU150
 361:Drivers/STM32F4xx_HAL_Driver/Src/stm32f4xx_ll_sdmmc.c **** }
 572              		.loc 1 361 16 is_stmt 0 view .LVU151
 573 0000 0068     		ldr	r0, [r0]
 574              	.LVL49:
 362:Drivers/STM32F4xx_HAL_Driver/Src/stm32f4xx_ll_sdmmc.c **** 
 575              		.loc 1 362 1 view .LVU152
 576 0002 00F00300 		and	r0, r0, #3
 577 0006 7047     		bx	lr
 578              		.cfi_endproc
 579              	.LFE131:
 581              		.section	.text.SDIO_SendCommand,"ax",%progbits
 582              		.align	1
 583              		.global	SDIO_SendCommand
 584              		.syntax unified
 585              		.thumb
 586              		.thumb_func
 587              		.fpu fpv4-sp-d16
 589              	SDIO_SendCommand:
 590              	.LVL50:
 591              	.LFB132:
 373:Drivers/STM32F4xx_HAL_Driver/Src/stm32f4xx_ll_sdmmc.c ****   uint32_t tmpreg = 0U;
 592              		.loc 1 373 1 is_stmt 1 view -0
 593              		.cfi_startproc
 594              		@ args = 0, pretend = 0, frame = 0
 595              		@ frame_needed = 0, uses_anonymous_args = 0
 596              		@ link register save eliminated.
 374:Drivers/STM32F4xx_HAL_Driver/Src/stm32f4xx_ll_sdmmc.c ****   
 597              		.loc 1 374 3 view .LVU154
 377:Drivers/STM32F4xx_HAL_Driver/Src/stm32f4xx_ll_sdmmc.c ****   assert_param(IS_SDIO_RESPONSE(Command->Response));
 598              		.loc 1 377 3 view .LVU155
 378:Drivers/STM32F4xx_HAL_Driver/Src/stm32f4xx_ll_sdmmc.c ****   assert_param(IS_SDIO_WAIT(Command->WaitForInterrupt));
 599              		.loc 1 378 3 view .LVU156
 379:Drivers/STM32F4xx_HAL_Driver/Src/stm32f4xx_ll_sdmmc.c ****   assert_param(IS_SDIO_CPSM(Command->CPSM));
 600              		.loc 1 379 3 view .LVU157
 380:Drivers/STM32F4xx_HAL_Driver/Src/stm32f4xx_ll_sdmmc.c **** 
 601              		.loc 1 380 3 view .LVU158
 383:Drivers/STM32F4xx_HAL_Driver/Src/stm32f4xx_ll_sdmmc.c **** 
 602              		.loc 1 383 3 view .LVU159
 383:Drivers/STM32F4xx_HAL_Driver/Src/stm32f4xx_ll_sdmmc.c **** 
 603              		.loc 1 383 23 is_stmt 0 view .LVU160
 604 0000 0B68     		ldr	r3, [r1]
 383:Drivers/STM32F4xx_HAL_Driver/Src/stm32f4xx_ll_sdmmc.c **** 
 605              		.loc 1 383 14 view .LVU161
 606 0002 8360     		str	r3, [r0, #8]
 386:Drivers/STM32F4xx_HAL_Driver/Src/stm32f4xx_ll_sdmmc.c ****                        Command->Response         |\
 607              		.loc 1 386 3 is_stmt 1 view .LVU162
 386:Drivers/STM32F4xx_HAL_Driver/Src/stm32f4xx_ll_sdmmc.c ****                        Command->Response         |\
 608              		.loc 1 386 31 is_stmt 0 view .LVU163
 609 0004 4B68     		ldr	r3, [r1, #4]
 387:Drivers/STM32F4xx_HAL_Driver/Src/stm32f4xx_ll_sdmmc.c ****                        Command->WaitForInterrupt |\
 610              		.loc 1 387 31 view .LVU164
 611 0006 8A68     		ldr	r2, [r1, #8]
 386:Drivers/STM32F4xx_HAL_Driver/Src/stm32f4xx_ll_sdmmc.c ****                        Command->Response         |\
 612              		.loc 1 386 50 view .LVU165
ARM GAS  /tmp/ccDCAHOp.s 			page 39


 613 0008 1343     		orrs	r3, r3, r2
 388:Drivers/STM32F4xx_HAL_Driver/Src/stm32f4xx_ll_sdmmc.c ****                        Command->CPSM);
 614              		.loc 1 388 31 view .LVU166
 615 000a CA68     		ldr	r2, [r1, #12]
 387:Drivers/STM32F4xx_HAL_Driver/Src/stm32f4xx_ll_sdmmc.c ****                        Command->WaitForInterrupt |\
 616              		.loc 1 387 50 view .LVU167
 617 000c 1343     		orrs	r3, r3, r2
 389:Drivers/STM32F4xx_HAL_Driver/Src/stm32f4xx_ll_sdmmc.c ****   
 618              		.loc 1 389 31 view .LVU168
 619 000e 0A69     		ldr	r2, [r1, #16]
 388:Drivers/STM32F4xx_HAL_Driver/Src/stm32f4xx_ll_sdmmc.c ****                        Command->CPSM);
 620              		.loc 1 388 50 view .LVU169
 621 0010 1343     		orrs	r3, r3, r2
 622              	.LVL51:
 392:Drivers/STM32F4xx_HAL_Driver/Src/stm32f4xx_ll_sdmmc.c ****   
 623              		.loc 1 392 3 is_stmt 1 view .LVU170
 624 0012 C268     		ldr	r2, [r0, #12]
 625 0014 22F47F62 		bic	r2, r2, #4080
 626 0018 22F00F02 		bic	r2, r2, #15
 627 001c 1343     		orrs	r3, r3, r2
 628              	.LVL52:
 392:Drivers/STM32F4xx_HAL_Driver/Src/stm32f4xx_ll_sdmmc.c ****   
 629              		.loc 1 392 3 is_stmt 0 view .LVU171
 630 001e C360     		str	r3, [r0, #12]
 631              	.LVL53:
 394:Drivers/STM32F4xx_HAL_Driver/Src/stm32f4xx_ll_sdmmc.c **** }
 632              		.loc 1 394 3 is_stmt 1 view .LVU172
 395:Drivers/STM32F4xx_HAL_Driver/Src/stm32f4xx_ll_sdmmc.c **** 
 633              		.loc 1 395 1 is_stmt 0 view .LVU173
 634 0020 0020     		movs	r0, #0
 635              	.LVL54:
 395:Drivers/STM32F4xx_HAL_Driver/Src/stm32f4xx_ll_sdmmc.c **** 
 636              		.loc 1 395 1 view .LVU174
 637 0022 7047     		bx	lr
 638              		.cfi_endproc
 639              	.LFE132:
 641              		.section	.text.SDIO_GetCommandResponse,"ax",%progbits
 642              		.align	1
 643              		.global	SDIO_GetCommandResponse
 644              		.syntax unified
 645              		.thumb
 646              		.thumb_func
 647              		.fpu fpv4-sp-d16
 649              	SDIO_GetCommandResponse:
 650              	.LVL55:
 651              	.LFB133:
 403:Drivers/STM32F4xx_HAL_Driver/Src/stm32f4xx_ll_sdmmc.c ****   return (uint8_t)(SDIOx->RESPCMD);
 652              		.loc 1 403 1 is_stmt 1 view -0
 653              		.cfi_startproc
 654              		@ args = 0, pretend = 0, frame = 0
 655              		@ frame_needed = 0, uses_anonymous_args = 0
 656              		@ link register save eliminated.
 404:Drivers/STM32F4xx_HAL_Driver/Src/stm32f4xx_ll_sdmmc.c **** }
 657              		.loc 1 404 3 view .LVU176
 404:Drivers/STM32F4xx_HAL_Driver/Src/stm32f4xx_ll_sdmmc.c **** }
 658              		.loc 1 404 25 is_stmt 0 view .LVU177
 659 0000 0069     		ldr	r0, [r0, #16]
ARM GAS  /tmp/ccDCAHOp.s 			page 40


 660              	.LVL56:
 405:Drivers/STM32F4xx_HAL_Driver/Src/stm32f4xx_ll_sdmmc.c **** 
 661              		.loc 1 405 1 view .LVU178
 662 0002 C0B2     		uxtb	r0, r0
 663 0004 7047     		bx	lr
 664              		.cfi_endproc
 665              	.LFE133:
 667              		.section	.text.SDIO_GetResponse,"ax",%progbits
 668              		.align	1
 669              		.global	SDIO_GetResponse
 670              		.syntax unified
 671              		.thumb
 672              		.thumb_func
 673              		.fpu fpv4-sp-d16
 675              	SDIO_GetResponse:
 676              	.LVL57:
 677              	.LFB134:
 420:Drivers/STM32F4xx_HAL_Driver/Src/stm32f4xx_ll_sdmmc.c ****   __IO uint32_t tmp = 0U;
 678              		.loc 1 420 1 is_stmt 1 view -0
 679              		.cfi_startproc
 680              		@ args = 0, pretend = 0, frame = 8
 681              		@ frame_needed = 0, uses_anonymous_args = 0
 682              		@ link register save eliminated.
 420:Drivers/STM32F4xx_HAL_Driver/Src/stm32f4xx_ll_sdmmc.c ****   __IO uint32_t tmp = 0U;
 683              		.loc 1 420 1 is_stmt 0 view .LVU180
 684 0000 82B0     		sub	sp, sp, #8
 685              	.LCFI4:
 686              		.cfi_def_cfa_offset 8
 421:Drivers/STM32F4xx_HAL_Driver/Src/stm32f4xx_ll_sdmmc.c **** 
 687              		.loc 1 421 3 is_stmt 1 view .LVU181
 421:Drivers/STM32F4xx_HAL_Driver/Src/stm32f4xx_ll_sdmmc.c **** 
 688              		.loc 1 421 17 is_stmt 0 view .LVU182
 689 0002 0023     		movs	r3, #0
 690 0004 0193     		str	r3, [sp, #4]
 424:Drivers/STM32F4xx_HAL_Driver/Src/stm32f4xx_ll_sdmmc.c ****   
 691              		.loc 1 424 3 is_stmt 1 view .LVU183
 427:Drivers/STM32F4xx_HAL_Driver/Src/stm32f4xx_ll_sdmmc.c ****   
 692              		.loc 1 427 3 view .LVU184
 427:Drivers/STM32F4xx_HAL_Driver/Src/stm32f4xx_ll_sdmmc.c ****   
 693              		.loc 1 427 19 is_stmt 0 view .LVU185
 694 0006 1430     		adds	r0, r0, #20
 695              	.LVL58:
 427:Drivers/STM32F4xx_HAL_Driver/Src/stm32f4xx_ll_sdmmc.c ****   
 696              		.loc 1 427 35 view .LVU186
 697 0008 0144     		add	r1, r1, r0
 698              	.LVL59:
 427:Drivers/STM32F4xx_HAL_Driver/Src/stm32f4xx_ll_sdmmc.c ****   
 699              		.loc 1 427 7 view .LVU187
 700 000a 0191     		str	r1, [sp, #4]
 429:Drivers/STM32F4xx_HAL_Driver/Src/stm32f4xx_ll_sdmmc.c **** }  
 701              		.loc 1 429 3 is_stmt 1 view .LVU188
 429:Drivers/STM32F4xx_HAL_Driver/Src/stm32f4xx_ll_sdmmc.c **** }  
 702              		.loc 1 429 12 is_stmt 0 view .LVU189
 703 000c 019B     		ldr	r3, [sp, #4]
 429:Drivers/STM32F4xx_HAL_Driver/Src/stm32f4xx_ll_sdmmc.c **** }  
 704              		.loc 1 429 11 view .LVU190
 705 000e 1868     		ldr	r0, [r3]
ARM GAS  /tmp/ccDCAHOp.s 			page 41


 706              	.LVL60:
 430:Drivers/STM32F4xx_HAL_Driver/Src/stm32f4xx_ll_sdmmc.c **** 
 707              		.loc 1 430 1 view .LVU191
 708 0010 02B0     		add	sp, sp, #8
 709              	.LCFI5:
 710              		.cfi_def_cfa_offset 0
 711              		@ sp needed
 712 0012 7047     		bx	lr
 713              		.cfi_endproc
 714              	.LFE134:
 716              		.section	.text.SDMMC_GetCmdResp1,"ax",%progbits
 717              		.align	1
 718              		.syntax unified
 719              		.thumb
 720              		.thumb_func
 721              		.fpu fpv4-sp-d16
 723              	SDMMC_GetCmdResp1:
 724              	.LVL61:
 725              	.LFB165:
1177:Drivers/STM32F4xx_HAL_Driver/Src/stm32f4xx_ll_sdmmc.c ****   uint32_t response_r1;
 726              		.loc 1 1177 1 is_stmt 1 view -0
 727              		.cfi_startproc
 728              		@ args = 0, pretend = 0, frame = 0
 729              		@ frame_needed = 0, uses_anonymous_args = 0
1177:Drivers/STM32F4xx_HAL_Driver/Src/stm32f4xx_ll_sdmmc.c ****   uint32_t response_r1;
 730              		.loc 1 1177 1 is_stmt 0 view .LVU193
 731 0000 38B5     		push	{r3, r4, r5, lr}
 732              	.LCFI6:
 733              		.cfi_def_cfa_offset 16
 734              		.cfi_offset 3, -16
 735              		.cfi_offset 4, -12
 736              		.cfi_offset 5, -8
 737              		.cfi_offset 14, -4
1178:Drivers/STM32F4xx_HAL_Driver/Src/stm32f4xx_ll_sdmmc.c ****   
 738              		.loc 1 1178 3 is_stmt 1 view .LVU194
1182:Drivers/STM32F4xx_HAL_Driver/Src/stm32f4xx_ll_sdmmc.c ****   
 739              		.loc 1 1182 3 view .LVU195
1182:Drivers/STM32F4xx_HAL_Driver/Src/stm32f4xx_ll_sdmmc.c ****   
 740              		.loc 1 1182 61 is_stmt 0 view .LVU196
 741 0002 514B     		ldr	r3, .L74
 742 0004 1B68     		ldr	r3, [r3]
 743 0006 514C     		ldr	r4, .L74+4
 744 0008 A4FB0343 		umull	r4, r3, r4, r3
 745 000c 5B0A     		lsrs	r3, r3, #9
1182:Drivers/STM32F4xx_HAL_Driver/Src/stm32f4xx_ll_sdmmc.c ****   
 746              		.loc 1 1182 21 view .LVU197
 747 000e 02FB03F2 		mul	r2, r2, r3
 748              	.LVL62:
 749              	.L47:
1184:Drivers/STM32F4xx_HAL_Driver/Src/stm32f4xx_ll_sdmmc.c ****   {
 750              		.loc 1 1184 3 is_stmt 1 view .LVU198
1186:Drivers/STM32F4xx_HAL_Driver/Src/stm32f4xx_ll_sdmmc.c ****     {
 751              		.loc 1 1186 5 view .LVU199
1186:Drivers/STM32F4xx_HAL_Driver/Src/stm32f4xx_ll_sdmmc.c ****     {
 752              		.loc 1 1186 14 is_stmt 0 view .LVU200
 753 0012 531E     		subs	r3, r2, #1
 754              	.LVL63:
ARM GAS  /tmp/ccDCAHOp.s 			page 42


1186:Drivers/STM32F4xx_HAL_Driver/Src/stm32f4xx_ll_sdmmc.c ****     {
 755              		.loc 1 1186 8 view .LVU201
 756 0014 002A     		cmp	r2, #0
 757 0016 5ED0     		beq	.L50
1191:Drivers/STM32F4xx_HAL_Driver/Src/stm32f4xx_ll_sdmmc.c ****   
 758              		.loc 1 1191 11 view .LVU202
 759 0018 446B     		ldr	r4, [r0, #52]
1186:Drivers/STM32F4xx_HAL_Driver/Src/stm32f4xx_ll_sdmmc.c ****     {
 760              		.loc 1 1186 14 view .LVU203
 761 001a 1A46     		mov	r2, r3
1191:Drivers/STM32F4xx_HAL_Driver/Src/stm32f4xx_ll_sdmmc.c ****   
 762              		.loc 1 1191 3 view .LVU204
 763 001c 14F0450F 		tst	r4, #69
 764 0020 F7D0     		beq	.L47
1193:Drivers/STM32F4xx_HAL_Driver/Src/stm32f4xx_ll_sdmmc.c ****   {
 765              		.loc 1 1193 3 is_stmt 1 view .LVU205
1193:Drivers/STM32F4xx_HAL_Driver/Src/stm32f4xx_ll_sdmmc.c ****   {
 766              		.loc 1 1193 6 is_stmt 0 view .LVU206
 767 0022 436B     		ldr	r3, [r0, #52]
 768              	.LVL64:
1193:Drivers/STM32F4xx_HAL_Driver/Src/stm32f4xx_ll_sdmmc.c ****   {
 769              		.loc 1 1193 5 view .LVU207
 770 0024 13F0040F 		tst	r3, #4
 771 0028 07D1     		bne	.L72
1199:Drivers/STM32F4xx_HAL_Driver/Src/stm32f4xx_ll_sdmmc.c ****   {
 772              		.loc 1 1199 8 is_stmt 1 view .LVU208
1199:Drivers/STM32F4xx_HAL_Driver/Src/stm32f4xx_ll_sdmmc.c ****   {
 773              		.loc 1 1199 11 is_stmt 0 view .LVU209
 774 002a 436B     		ldr	r3, [r0, #52]
1199:Drivers/STM32F4xx_HAL_Driver/Src/stm32f4xx_ll_sdmmc.c ****   {
 775              		.loc 1 1199 10 view .LVU210
 776 002c 13F0010F 		tst	r3, #1
 777 0030 07D0     		beq	.L49
1201:Drivers/STM32F4xx_HAL_Driver/Src/stm32f4xx_ll_sdmmc.c ****     
 778              		.loc 1 1201 5 is_stmt 1 view .LVU211
 779 0032 0123     		movs	r3, #1
 780 0034 8363     		str	r3, [r0, #56]
1203:Drivers/STM32F4xx_HAL_Driver/Src/stm32f4xx_ll_sdmmc.c ****   }
 781              		.loc 1 1203 5 view .LVU212
1203:Drivers/STM32F4xx_HAL_Driver/Src/stm32f4xx_ll_sdmmc.c ****   }
 782              		.loc 1 1203 12 is_stmt 0 view .LVU213
 783 0036 1846     		mov	r0, r3
 784              	.LVL65:
1203:Drivers/STM32F4xx_HAL_Driver/Src/stm32f4xx_ll_sdmmc.c ****   }
 785              		.loc 1 1203 12 view .LVU214
 786 0038 4FE0     		b	.L45
 787              	.LVL66:
 788              	.L72:
1195:Drivers/STM32F4xx_HAL_Driver/Src/stm32f4xx_ll_sdmmc.c ****     
 789              		.loc 1 1195 5 is_stmt 1 view .LVU215
 790 003a 0423     		movs	r3, #4
 791 003c 8363     		str	r3, [r0, #56]
1197:Drivers/STM32F4xx_HAL_Driver/Src/stm32f4xx_ll_sdmmc.c ****   }
 792              		.loc 1 1197 5 view .LVU216
1197:Drivers/STM32F4xx_HAL_Driver/Src/stm32f4xx_ll_sdmmc.c ****   }
 793              		.loc 1 1197 12 is_stmt 0 view .LVU217
 794 003e 1846     		mov	r0, r3
ARM GAS  /tmp/ccDCAHOp.s 			page 43


 795              	.LVL67:
1197:Drivers/STM32F4xx_HAL_Driver/Src/stm32f4xx_ll_sdmmc.c ****   }
 796              		.loc 1 1197 12 view .LVU218
 797 0040 4BE0     		b	.L45
 798              	.LVL68:
 799              	.L49:
1197:Drivers/STM32F4xx_HAL_Driver/Src/stm32f4xx_ll_sdmmc.c ****   }
 800              		.loc 1 1197 12 view .LVU219
 801 0042 0D46     		mov	r5, r1
 802 0044 0446     		mov	r4, r0
1207:Drivers/STM32F4xx_HAL_Driver/Src/stm32f4xx_ll_sdmmc.c ****   {
 803              		.loc 1 1207 3 is_stmt 1 view .LVU220
1207:Drivers/STM32F4xx_HAL_Driver/Src/stm32f4xx_ll_sdmmc.c ****   {
 804              		.loc 1 1207 6 is_stmt 0 view .LVU221
 805 0046 FFF7FEFF 		bl	SDIO_GetCommandResponse
 806              	.LVL69:
1207:Drivers/STM32F4xx_HAL_Driver/Src/stm32f4xx_ll_sdmmc.c ****   {
 807              		.loc 1 1207 5 view .LVU222
 808 004a A842     		cmp	r0, r5
 809 004c 01D0     		beq	.L73
1209:Drivers/STM32F4xx_HAL_Driver/Src/stm32f4xx_ll_sdmmc.c ****   }
 810              		.loc 1 1209 12 view .LVU223
 811 004e 0120     		movs	r0, #1
 812 0050 43E0     		b	.L45
 813              	.L73:
1213:Drivers/STM32F4xx_HAL_Driver/Src/stm32f4xx_ll_sdmmc.c ****   
 814              		.loc 1 1213 3 is_stmt 1 view .LVU224
 815 0052 40F2FF53 		movw	r3, #1535
 816 0056 A363     		str	r3, [r4, #56]
1216:Drivers/STM32F4xx_HAL_Driver/Src/stm32f4xx_ll_sdmmc.c ****   
 817              		.loc 1 1216 3 view .LVU225
1216:Drivers/STM32F4xx_HAL_Driver/Src/stm32f4xx_ll_sdmmc.c ****   
 818              		.loc 1 1216 17 is_stmt 0 view .LVU226
 819 0058 0021     		movs	r1, #0
 820 005a 2046     		mov	r0, r4
 821 005c FFF7FEFF 		bl	SDIO_GetResponse
 822              	.LVL70:
1218:Drivers/STM32F4xx_HAL_Driver/Src/stm32f4xx_ll_sdmmc.c ****   {
 823              		.loc 1 1218 3 is_stmt 1 view .LVU227
1218:Drivers/STM32F4xx_HAL_Driver/Src/stm32f4xx_ll_sdmmc.c ****   {
 824              		.loc 1 1218 19 is_stmt 0 view .LVU228
 825 0060 3B4B     		ldr	r3, .L74+8
 826 0062 0340     		ands	r3, r3, r0
1218:Drivers/STM32F4xx_HAL_Driver/Src/stm32f4xx_ll_sdmmc.c ****   {
 827              		.loc 1 1218 5 view .LVU229
 828 0064 D3B3     		cbz	r3, .L52
1222:Drivers/STM32F4xx_HAL_Driver/Src/stm32f4xx_ll_sdmmc.c ****   {
 829              		.loc 1 1222 8 is_stmt 1 view .LVU230
1222:Drivers/STM32F4xx_HAL_Driver/Src/stm32f4xx_ll_sdmmc.c ****   {
 830              		.loc 1 1222 10 is_stmt 0 view .LVU231
 831 0066 0028     		cmp	r0, #0
 832 0068 3ADB     		blt	.L53
1226:Drivers/STM32F4xx_HAL_Driver/Src/stm32f4xx_ll_sdmmc.c ****   {
 833              		.loc 1 1226 8 is_stmt 1 view .LVU232
1226:Drivers/STM32F4xx_HAL_Driver/Src/stm32f4xx_ll_sdmmc.c ****   {
 834              		.loc 1 1226 10 is_stmt 0 view .LVU233
 835 006a 10F0804F 		tst	r0, #1073741824
ARM GAS  /tmp/ccDCAHOp.s 			page 44


 836 006e 3AD1     		bne	.L54
1230:Drivers/STM32F4xx_HAL_Driver/Src/stm32f4xx_ll_sdmmc.c ****   {
 837              		.loc 1 1230 8 is_stmt 1 view .LVU234
1230:Drivers/STM32F4xx_HAL_Driver/Src/stm32f4xx_ll_sdmmc.c ****   {
 838              		.loc 1 1230 10 is_stmt 0 view .LVU235
 839 0070 10F0005F 		tst	r0, #536870912
 840 0074 39D1     		bne	.L55
1234:Drivers/STM32F4xx_HAL_Driver/Src/stm32f4xx_ll_sdmmc.c ****   {
 841              		.loc 1 1234 8 is_stmt 1 view .LVU236
1234:Drivers/STM32F4xx_HAL_Driver/Src/stm32f4xx_ll_sdmmc.c ****   {
 842              		.loc 1 1234 10 is_stmt 0 view .LVU237
 843 0076 10F0805F 		tst	r0, #268435456
 844 007a 38D1     		bne	.L56
1238:Drivers/STM32F4xx_HAL_Driver/Src/stm32f4xx_ll_sdmmc.c ****   {
 845              		.loc 1 1238 8 is_stmt 1 view .LVU238
1238:Drivers/STM32F4xx_HAL_Driver/Src/stm32f4xx_ll_sdmmc.c ****   {
 846              		.loc 1 1238 10 is_stmt 0 view .LVU239
 847 007c 10F0006F 		tst	r0, #134217728
 848 0080 38D1     		bne	.L57
1242:Drivers/STM32F4xx_HAL_Driver/Src/stm32f4xx_ll_sdmmc.c ****   {
 849              		.loc 1 1242 8 is_stmt 1 view .LVU240
1242:Drivers/STM32F4xx_HAL_Driver/Src/stm32f4xx_ll_sdmmc.c ****   {
 850              		.loc 1 1242 10 is_stmt 0 view .LVU241
 851 0082 10F0806F 		tst	r0, #67108864
 852 0086 38D1     		bne	.L58
1246:Drivers/STM32F4xx_HAL_Driver/Src/stm32f4xx_ll_sdmmc.c ****   {
 853              		.loc 1 1246 8 is_stmt 1 view .LVU242
1246:Drivers/STM32F4xx_HAL_Driver/Src/stm32f4xx_ll_sdmmc.c ****   {
 854              		.loc 1 1246 10 is_stmt 0 view .LVU243
 855 0088 10F0807F 		tst	r0, #16777216
 856 008c 38D1     		bne	.L59
1250:Drivers/STM32F4xx_HAL_Driver/Src/stm32f4xx_ll_sdmmc.c ****   {
 857              		.loc 1 1250 8 is_stmt 1 view .LVU244
1250:Drivers/STM32F4xx_HAL_Driver/Src/stm32f4xx_ll_sdmmc.c ****   {
 858              		.loc 1 1250 10 is_stmt 0 view .LVU245
 859 008e 10F4000F 		tst	r0, #8388608
 860 0092 38D1     		bne	.L60
1254:Drivers/STM32F4xx_HAL_Driver/Src/stm32f4xx_ll_sdmmc.c ****   {
 861              		.loc 1 1254 8 is_stmt 1 view .LVU246
1254:Drivers/STM32F4xx_HAL_Driver/Src/stm32f4xx_ll_sdmmc.c ****   {
 862              		.loc 1 1254 10 is_stmt 0 view .LVU247
 863 0094 10F4800F 		tst	r0, #4194304
 864 0098 38D1     		bne	.L61
1258:Drivers/STM32F4xx_HAL_Driver/Src/stm32f4xx_ll_sdmmc.c ****   {
 865              		.loc 1 1258 8 is_stmt 1 view .LVU248
1258:Drivers/STM32F4xx_HAL_Driver/Src/stm32f4xx_ll_sdmmc.c ****   {
 866              		.loc 1 1258 10 is_stmt 0 view .LVU249
 867 009a 10F4001F 		tst	r0, #2097152
 868 009e 38D1     		bne	.L62
1262:Drivers/STM32F4xx_HAL_Driver/Src/stm32f4xx_ll_sdmmc.c ****   {
 869              		.loc 1 1262 8 is_stmt 1 view .LVU250
1262:Drivers/STM32F4xx_HAL_Driver/Src/stm32f4xx_ll_sdmmc.c ****   {
 870              		.loc 1 1262 10 is_stmt 0 view .LVU251
 871 00a0 10F4801F 		tst	r0, #1048576
 872 00a4 38D1     		bne	.L63
1266:Drivers/STM32F4xx_HAL_Driver/Src/stm32f4xx_ll_sdmmc.c ****   {
 873              		.loc 1 1266 8 is_stmt 1 view .LVU252
ARM GAS  /tmp/ccDCAHOp.s 			page 45


1266:Drivers/STM32F4xx_HAL_Driver/Src/stm32f4xx_ll_sdmmc.c ****   {
 874              		.loc 1 1266 10 is_stmt 0 view .LVU253
 875 00a6 10F4802F 		tst	r0, #262144
 876 00aa 38D1     		bne	.L64
1270:Drivers/STM32F4xx_HAL_Driver/Src/stm32f4xx_ll_sdmmc.c ****   {
 877              		.loc 1 1270 8 is_stmt 1 view .LVU254
1270:Drivers/STM32F4xx_HAL_Driver/Src/stm32f4xx_ll_sdmmc.c ****   {
 878              		.loc 1 1270 10 is_stmt 0 view .LVU255
 879 00ac 10F4003F 		tst	r0, #131072
 880 00b0 38D1     		bne	.L65
1274:Drivers/STM32F4xx_HAL_Driver/Src/stm32f4xx_ll_sdmmc.c ****   {
 881              		.loc 1 1274 8 is_stmt 1 view .LVU256
1274:Drivers/STM32F4xx_HAL_Driver/Src/stm32f4xx_ll_sdmmc.c ****   {
 882              		.loc 1 1274 10 is_stmt 0 view .LVU257
 883 00b2 10F4803F 		tst	r0, #65536
 884 00b6 38D1     		bne	.L66
1278:Drivers/STM32F4xx_HAL_Driver/Src/stm32f4xx_ll_sdmmc.c ****   {
 885              		.loc 1 1278 8 is_stmt 1 view .LVU258
1278:Drivers/STM32F4xx_HAL_Driver/Src/stm32f4xx_ll_sdmmc.c ****   {
 886              		.loc 1 1278 10 is_stmt 0 view .LVU259
 887 00b8 10F4004F 		tst	r0, #32768
 888 00bc 38D1     		bne	.L67
1282:Drivers/STM32F4xx_HAL_Driver/Src/stm32f4xx_ll_sdmmc.c ****   {
 889              		.loc 1 1282 8 is_stmt 1 view .LVU260
1282:Drivers/STM32F4xx_HAL_Driver/Src/stm32f4xx_ll_sdmmc.c ****   {
 890              		.loc 1 1282 10 is_stmt 0 view .LVU261
 891 00be 10F4804F 		tst	r0, #16384
 892 00c2 38D1     		bne	.L68
1286:Drivers/STM32F4xx_HAL_Driver/Src/stm32f4xx_ll_sdmmc.c ****   {
 893              		.loc 1 1286 8 is_stmt 1 view .LVU262
1286:Drivers/STM32F4xx_HAL_Driver/Src/stm32f4xx_ll_sdmmc.c ****   {
 894              		.loc 1 1286 10 is_stmt 0 view .LVU263
 895 00c4 10F4005F 		tst	r0, #8192
 896 00c8 38D1     		bne	.L69
1290:Drivers/STM32F4xx_HAL_Driver/Src/stm32f4xx_ll_sdmmc.c ****   {
 897              		.loc 1 1290 8 is_stmt 1 view .LVU264
1290:Drivers/STM32F4xx_HAL_Driver/Src/stm32f4xx_ll_sdmmc.c ****   {
 898              		.loc 1 1290 10 is_stmt 0 view .LVU265
 899 00ca 10F0080F 		tst	r0, #8
 900 00ce 38D0     		beq	.L70
1292:Drivers/STM32F4xx_HAL_Driver/Src/stm32f4xx_ll_sdmmc.c ****   }
 901              		.loc 1 1292 12 view .LVU266
 902 00d0 4FF40000 		mov	r0, #8388608
 903              	.LVL71:
1292:Drivers/STM32F4xx_HAL_Driver/Src/stm32f4xx_ll_sdmmc.c ****   }
 904              		.loc 1 1292 12 view .LVU267
 905 00d4 01E0     		b	.L45
 906              	.LVL72:
 907              	.L50:
1188:Drivers/STM32F4xx_HAL_Driver/Src/stm32f4xx_ll_sdmmc.c ****     }
 908              		.loc 1 1188 14 view .LVU268
 909 00d6 4FF00040 		mov	r0, #-2147483648
 910              	.LVL73:
 911              	.L45:
1298:Drivers/STM32F4xx_HAL_Driver/Src/stm32f4xx_ll_sdmmc.c **** 
 912              		.loc 1 1298 1 view .LVU269
 913 00da 38BD     		pop	{r3, r4, r5, pc}
ARM GAS  /tmp/ccDCAHOp.s 			page 46


 914              	.LVL74:
 915              	.L52:
1220:Drivers/STM32F4xx_HAL_Driver/Src/stm32f4xx_ll_sdmmc.c ****   }
 916              		.loc 1 1220 12 view .LVU270
 917 00dc 0020     		movs	r0, #0
 918              	.LVL75:
1220:Drivers/STM32F4xx_HAL_Driver/Src/stm32f4xx_ll_sdmmc.c ****   }
 919              		.loc 1 1220 12 view .LVU271
 920 00de FCE7     		b	.L45
 921              	.LVL76:
 922              	.L53:
1224:Drivers/STM32F4xx_HAL_Driver/Src/stm32f4xx_ll_sdmmc.c ****   }
 923              		.loc 1 1224 12 view .LVU272
 924 00e0 4FF00070 		mov	r0, #33554432
 925              	.LVL77:
1224:Drivers/STM32F4xx_HAL_Driver/Src/stm32f4xx_ll_sdmmc.c ****   }
 926              		.loc 1 1224 12 view .LVU273
 927 00e4 F9E7     		b	.L45
 928              	.LVL78:
 929              	.L54:
1228:Drivers/STM32F4xx_HAL_Driver/Src/stm32f4xx_ll_sdmmc.c ****   }
 930              		.loc 1 1228 12 view .LVU274
 931 00e6 4020     		movs	r0, #64
 932              	.LVL79:
1228:Drivers/STM32F4xx_HAL_Driver/Src/stm32f4xx_ll_sdmmc.c ****   }
 933              		.loc 1 1228 12 view .LVU275
 934 00e8 F7E7     		b	.L45
 935              	.LVL80:
 936              	.L55:
1232:Drivers/STM32F4xx_HAL_Driver/Src/stm32f4xx_ll_sdmmc.c ****   }
 937              		.loc 1 1232 12 view .LVU276
 938 00ea 8020     		movs	r0, #128
 939              	.LVL81:
1232:Drivers/STM32F4xx_HAL_Driver/Src/stm32f4xx_ll_sdmmc.c ****   }
 940              		.loc 1 1232 12 view .LVU277
 941 00ec F5E7     		b	.L45
 942              	.LVL82:
 943              	.L56:
1236:Drivers/STM32F4xx_HAL_Driver/Src/stm32f4xx_ll_sdmmc.c ****   }
 944              		.loc 1 1236 12 view .LVU278
 945 00ee 4FF48070 		mov	r0, #256
 946              	.LVL83:
1236:Drivers/STM32F4xx_HAL_Driver/Src/stm32f4xx_ll_sdmmc.c ****   }
 947              		.loc 1 1236 12 view .LVU279
 948 00f2 F2E7     		b	.L45
 949              	.LVL84:
 950              	.L57:
1240:Drivers/STM32F4xx_HAL_Driver/Src/stm32f4xx_ll_sdmmc.c ****   }
 951              		.loc 1 1240 12 view .LVU280
 952 00f4 4FF40070 		mov	r0, #512
 953              	.LVL85:
1240:Drivers/STM32F4xx_HAL_Driver/Src/stm32f4xx_ll_sdmmc.c ****   }
 954              		.loc 1 1240 12 view .LVU281
 955 00f8 EFE7     		b	.L45
 956              	.LVL86:
 957              	.L58:
1244:Drivers/STM32F4xx_HAL_Driver/Src/stm32f4xx_ll_sdmmc.c ****   }
ARM GAS  /tmp/ccDCAHOp.s 			page 47


 958              		.loc 1 1244 12 view .LVU282
 959 00fa 4FF48060 		mov	r0, #1024
 960              	.LVL87:
1244:Drivers/STM32F4xx_HAL_Driver/Src/stm32f4xx_ll_sdmmc.c ****   }
 961              		.loc 1 1244 12 view .LVU283
 962 00fe ECE7     		b	.L45
 963              	.LVL88:
 964              	.L59:
1248:Drivers/STM32F4xx_HAL_Driver/Src/stm32f4xx_ll_sdmmc.c ****   }
 965              		.loc 1 1248 12 view .LVU284
 966 0100 4FF40060 		mov	r0, #2048
 967              	.LVL89:
1248:Drivers/STM32F4xx_HAL_Driver/Src/stm32f4xx_ll_sdmmc.c ****   }
 968              		.loc 1 1248 12 view .LVU285
 969 0104 E9E7     		b	.L45
 970              	.LVL90:
 971              	.L60:
1252:Drivers/STM32F4xx_HAL_Driver/Src/stm32f4xx_ll_sdmmc.c ****   }
 972              		.loc 1 1252 12 view .LVU286
 973 0106 4FF48050 		mov	r0, #4096
 974              	.LVL91:
1252:Drivers/STM32F4xx_HAL_Driver/Src/stm32f4xx_ll_sdmmc.c ****   }
 975              		.loc 1 1252 12 view .LVU287
 976 010a E6E7     		b	.L45
 977              	.LVL92:
 978              	.L61:
1256:Drivers/STM32F4xx_HAL_Driver/Src/stm32f4xx_ll_sdmmc.c ****   }
 979              		.loc 1 1256 12 view .LVU288
 980 010c 4FF40050 		mov	r0, #8192
 981              	.LVL93:
1256:Drivers/STM32F4xx_HAL_Driver/Src/stm32f4xx_ll_sdmmc.c ****   }
 982              		.loc 1 1256 12 view .LVU289
 983 0110 E3E7     		b	.L45
 984              	.LVL94:
 985              	.L62:
1260:Drivers/STM32F4xx_HAL_Driver/Src/stm32f4xx_ll_sdmmc.c ****   }
 986              		.loc 1 1260 12 view .LVU290
 987 0112 4FF48040 		mov	r0, #16384
 988              	.LVL95:
1260:Drivers/STM32F4xx_HAL_Driver/Src/stm32f4xx_ll_sdmmc.c ****   }
 989              		.loc 1 1260 12 view .LVU291
 990 0116 E0E7     		b	.L45
 991              	.LVL96:
 992              	.L63:
1264:Drivers/STM32F4xx_HAL_Driver/Src/stm32f4xx_ll_sdmmc.c ****   }
 993              		.loc 1 1264 12 view .LVU292
 994 0118 4FF40040 		mov	r0, #32768
 995              	.LVL97:
1264:Drivers/STM32F4xx_HAL_Driver/Src/stm32f4xx_ll_sdmmc.c ****   }
 996              		.loc 1 1264 12 view .LVU293
 997 011c DDE7     		b	.L45
 998              	.LVL98:
 999              	.L64:
1268:Drivers/STM32F4xx_HAL_Driver/Src/stm32f4xx_ll_sdmmc.c ****   }
 1000              		.loc 1 1268 12 view .LVU294
 1001 011e 4FF40030 		mov	r0, #131072
 1002              	.LVL99:
ARM GAS  /tmp/ccDCAHOp.s 			page 48


1268:Drivers/STM32F4xx_HAL_Driver/Src/stm32f4xx_ll_sdmmc.c ****   }
 1003              		.loc 1 1268 12 view .LVU295
 1004 0122 DAE7     		b	.L45
 1005              	.LVL100:
 1006              	.L65:
1272:Drivers/STM32F4xx_HAL_Driver/Src/stm32f4xx_ll_sdmmc.c ****   }
 1007              		.loc 1 1272 12 view .LVU296
 1008 0124 4FF48020 		mov	r0, #262144
 1009              	.LVL101:
1272:Drivers/STM32F4xx_HAL_Driver/Src/stm32f4xx_ll_sdmmc.c ****   }
 1010              		.loc 1 1272 12 view .LVU297
 1011 0128 D7E7     		b	.L45
 1012              	.LVL102:
 1013              	.L66:
1276:Drivers/STM32F4xx_HAL_Driver/Src/stm32f4xx_ll_sdmmc.c ****   }
 1014              		.loc 1 1276 12 view .LVU298
 1015 012a 4FF40020 		mov	r0, #524288
 1016              	.LVL103:
1276:Drivers/STM32F4xx_HAL_Driver/Src/stm32f4xx_ll_sdmmc.c ****   }
 1017              		.loc 1 1276 12 view .LVU299
 1018 012e D4E7     		b	.L45
 1019              	.LVL104:
 1020              	.L67:
1280:Drivers/STM32F4xx_HAL_Driver/Src/stm32f4xx_ll_sdmmc.c ****   }
 1021              		.loc 1 1280 12 view .LVU300
 1022 0130 4FF48010 		mov	r0, #1048576
 1023              	.LVL105:
1280:Drivers/STM32F4xx_HAL_Driver/Src/stm32f4xx_ll_sdmmc.c ****   }
 1024              		.loc 1 1280 12 view .LVU301
 1025 0134 D1E7     		b	.L45
 1026              	.LVL106:
 1027              	.L68:
1284:Drivers/STM32F4xx_HAL_Driver/Src/stm32f4xx_ll_sdmmc.c ****   }
 1028              		.loc 1 1284 12 view .LVU302
 1029 0136 4FF40010 		mov	r0, #2097152
 1030              	.LVL107:
1284:Drivers/STM32F4xx_HAL_Driver/Src/stm32f4xx_ll_sdmmc.c ****   }
 1031              		.loc 1 1284 12 view .LVU303
 1032 013a CEE7     		b	.L45
 1033              	.LVL108:
 1034              	.L69:
1288:Drivers/STM32F4xx_HAL_Driver/Src/stm32f4xx_ll_sdmmc.c ****   }
 1035              		.loc 1 1288 12 view .LVU304
 1036 013c 4FF48000 		mov	r0, #4194304
 1037              	.LVL109:
1288:Drivers/STM32F4xx_HAL_Driver/Src/stm32f4xx_ll_sdmmc.c ****   }
 1038              		.loc 1 1288 12 view .LVU305
 1039 0140 CBE7     		b	.L45
 1040              	.LVL110:
 1041              	.L70:
1296:Drivers/STM32F4xx_HAL_Driver/Src/stm32f4xx_ll_sdmmc.c ****   }
 1042              		.loc 1 1296 12 view .LVU306
 1043 0142 4FF48030 		mov	r0, #65536
 1044              	.LVL111:
1296:Drivers/STM32F4xx_HAL_Driver/Src/stm32f4xx_ll_sdmmc.c ****   }
 1045              		.loc 1 1296 12 view .LVU307
 1046 0146 C8E7     		b	.L45
ARM GAS  /tmp/ccDCAHOp.s 			page 49


 1047              	.L75:
 1048              		.align	2
 1049              	.L74:
 1050 0148 00000000 		.word	SystemCoreClock
 1051 014c D34D6210 		.word	274877907
 1052 0150 08E0FFFD 		.word	-33562616
 1053              		.cfi_endproc
 1054              	.LFE165:
 1056              		.section	.text.SDMMC_GetCmdResp6,"ax",%progbits
 1057              		.align	1
 1058              		.syntax unified
 1059              		.thumb
 1060              		.thumb_func
 1061              		.fpu fpv4-sp-d16
 1063              	SDMMC_GetCmdResp6:
 1064              	.LVL112:
 1065              	.LFB168:
1387:Drivers/STM32F4xx_HAL_Driver/Src/stm32f4xx_ll_sdmmc.c ****   uint32_t response_r1;
 1066              		.loc 1 1387 1 is_stmt 1 view -0
 1067              		.cfi_startproc
 1068              		@ args = 0, pretend = 0, frame = 0
 1069              		@ frame_needed = 0, uses_anonymous_args = 0
1387:Drivers/STM32F4xx_HAL_Driver/Src/stm32f4xx_ll_sdmmc.c ****   uint32_t response_r1;
 1070              		.loc 1 1387 1 is_stmt 0 view .LVU309
 1071 0000 70B5     		push	{r4, r5, r6, lr}
 1072              	.LCFI7:
 1073              		.cfi_def_cfa_offset 16
 1074              		.cfi_offset 4, -16
 1075              		.cfi_offset 5, -12
 1076              		.cfi_offset 6, -8
 1077              		.cfi_offset 14, -4
1388:Drivers/STM32F4xx_HAL_Driver/Src/stm32f4xx_ll_sdmmc.c **** 
 1078              		.loc 1 1388 3 is_stmt 1 view .LVU310
1392:Drivers/STM32F4xx_HAL_Driver/Src/stm32f4xx_ll_sdmmc.c ****   
 1079              		.loc 1 1392 3 view .LVU311
1392:Drivers/STM32F4xx_HAL_Driver/Src/stm32f4xx_ll_sdmmc.c ****   
 1080              		.loc 1 1392 69 is_stmt 0 view .LVU312
 1081 0002 254B     		ldr	r3, .L90
 1082 0004 1B68     		ldr	r3, [r3]
 1083 0006 254C     		ldr	r4, .L90+4
 1084 0008 A4FB0343 		umull	r4, r3, r4, r3
 1085 000c 5C0A     		lsrs	r4, r3, #9
1392:Drivers/STM32F4xx_HAL_Driver/Src/stm32f4xx_ll_sdmmc.c ****   
 1086              		.loc 1 1392 21 view .LVU313
 1087 000e 41F28833 		movw	r3, #5000
 1088 0012 03FB04F3 		mul	r3, r3, r4
 1089              	.LVL113:
 1090              	.L78:
1394:Drivers/STM32F4xx_HAL_Driver/Src/stm32f4xx_ll_sdmmc.c ****   {
 1091              		.loc 1 1394 3 is_stmt 1 view .LVU314
1396:Drivers/STM32F4xx_HAL_Driver/Src/stm32f4xx_ll_sdmmc.c ****     {
 1092              		.loc 1 1396 5 view .LVU315
1396:Drivers/STM32F4xx_HAL_Driver/Src/stm32f4xx_ll_sdmmc.c ****     {
 1093              		.loc 1 1396 14 is_stmt 0 view .LVU316
 1094 0016 5C1E     		subs	r4, r3, #1
 1095              	.LVL114:
1396:Drivers/STM32F4xx_HAL_Driver/Src/stm32f4xx_ll_sdmmc.c ****     {
ARM GAS  /tmp/ccDCAHOp.s 			page 50


 1096              		.loc 1 1396 8 view .LVU317
 1097 0018 A3B3     		cbz	r3, .L82
1401:Drivers/STM32F4xx_HAL_Driver/Src/stm32f4xx_ll_sdmmc.c ****   
 1098              		.loc 1 1401 11 view .LVU318
 1099 001a 456B     		ldr	r5, [r0, #52]
1396:Drivers/STM32F4xx_HAL_Driver/Src/stm32f4xx_ll_sdmmc.c ****     {
 1100              		.loc 1 1396 14 view .LVU319
 1101 001c 2346     		mov	r3, r4
1401:Drivers/STM32F4xx_HAL_Driver/Src/stm32f4xx_ll_sdmmc.c ****   
 1102              		.loc 1 1401 3 view .LVU320
 1103 001e 15F0450F 		tst	r5, #69
 1104 0022 F8D0     		beq	.L78
1403:Drivers/STM32F4xx_HAL_Driver/Src/stm32f4xx_ll_sdmmc.c ****   {
 1105              		.loc 1 1403 3 is_stmt 1 view .LVU321
1403:Drivers/STM32F4xx_HAL_Driver/Src/stm32f4xx_ll_sdmmc.c ****   {
 1106              		.loc 1 1403 6 is_stmt 0 view .LVU322
 1107 0024 436B     		ldr	r3, [r0, #52]
1403:Drivers/STM32F4xx_HAL_Driver/Src/stm32f4xx_ll_sdmmc.c ****   {
 1108              		.loc 1 1403 5 view .LVU323
 1109 0026 13F0040F 		tst	r3, #4
 1110 002a 07D1     		bne	.L87
1409:Drivers/STM32F4xx_HAL_Driver/Src/stm32f4xx_ll_sdmmc.c ****   {
 1111              		.loc 1 1409 8 is_stmt 1 view .LVU324
1409:Drivers/STM32F4xx_HAL_Driver/Src/stm32f4xx_ll_sdmmc.c ****   {
 1112              		.loc 1 1409 11 is_stmt 0 view .LVU325
 1113 002c 436B     		ldr	r3, [r0, #52]
1409:Drivers/STM32F4xx_HAL_Driver/Src/stm32f4xx_ll_sdmmc.c ****   {
 1114              		.loc 1 1409 10 view .LVU326
 1115 002e 13F0010F 		tst	r3, #1
 1116 0032 07D0     		beq	.L80
1411:Drivers/STM32F4xx_HAL_Driver/Src/stm32f4xx_ll_sdmmc.c ****     
 1117              		.loc 1 1411 5 is_stmt 1 view .LVU327
 1118 0034 0123     		movs	r3, #1
 1119 0036 8363     		str	r3, [r0, #56]
1413:Drivers/STM32F4xx_HAL_Driver/Src/stm32f4xx_ll_sdmmc.c ****   }
 1120              		.loc 1 1413 5 view .LVU328
1413:Drivers/STM32F4xx_HAL_Driver/Src/stm32f4xx_ll_sdmmc.c ****   }
 1121              		.loc 1 1413 12 is_stmt 0 view .LVU329
 1122 0038 1846     		mov	r0, r3
 1123              	.LVL115:
1413:Drivers/STM32F4xx_HAL_Driver/Src/stm32f4xx_ll_sdmmc.c ****   }
 1124              		.loc 1 1413 12 view .LVU330
 1125 003a 25E0     		b	.L76
 1126              	.LVL116:
 1127              	.L87:
1405:Drivers/STM32F4xx_HAL_Driver/Src/stm32f4xx_ll_sdmmc.c ****     
 1128              		.loc 1 1405 5 is_stmt 1 view .LVU331
 1129 003c 0423     		movs	r3, #4
 1130 003e 8363     		str	r3, [r0, #56]
1407:Drivers/STM32F4xx_HAL_Driver/Src/stm32f4xx_ll_sdmmc.c ****   }
 1131              		.loc 1 1407 5 view .LVU332
1407:Drivers/STM32F4xx_HAL_Driver/Src/stm32f4xx_ll_sdmmc.c ****   }
 1132              		.loc 1 1407 12 is_stmt 0 view .LVU333
 1133 0040 1846     		mov	r0, r3
 1134              	.LVL117:
1407:Drivers/STM32F4xx_HAL_Driver/Src/stm32f4xx_ll_sdmmc.c ****   }
 1135              		.loc 1 1407 12 view .LVU334
ARM GAS  /tmp/ccDCAHOp.s 			page 51


 1136 0042 21E0     		b	.L76
 1137              	.LVL118:
 1138              	.L80:
1407:Drivers/STM32F4xx_HAL_Driver/Src/stm32f4xx_ll_sdmmc.c ****   }
 1139              		.loc 1 1407 12 view .LVU335
 1140 0044 1646     		mov	r6, r2
 1141 0046 0D46     		mov	r5, r1
 1142 0048 0446     		mov	r4, r0
 1143              	.LVL119:
1417:Drivers/STM32F4xx_HAL_Driver/Src/stm32f4xx_ll_sdmmc.c ****   {
 1144              		.loc 1 1417 3 is_stmt 1 view .LVU336
1417:Drivers/STM32F4xx_HAL_Driver/Src/stm32f4xx_ll_sdmmc.c ****   {
 1145              		.loc 1 1417 6 is_stmt 0 view .LVU337
 1146 004a FFF7FEFF 		bl	SDIO_GetCommandResponse
 1147              	.LVL120:
1417:Drivers/STM32F4xx_HAL_Driver/Src/stm32f4xx_ll_sdmmc.c ****   {
 1148              		.loc 1 1417 5 view .LVU338
 1149 004e A842     		cmp	r0, r5
 1150 0050 01D0     		beq	.L88
1419:Drivers/STM32F4xx_HAL_Driver/Src/stm32f4xx_ll_sdmmc.c ****   }
 1151              		.loc 1 1419 12 view .LVU339
 1152 0052 0120     		movs	r0, #1
 1153 0054 18E0     		b	.L76
 1154              	.L88:
1423:Drivers/STM32F4xx_HAL_Driver/Src/stm32f4xx_ll_sdmmc.c ****   
 1155              		.loc 1 1423 3 is_stmt 1 view .LVU340
 1156 0056 40F2FF53 		movw	r3, #1535
 1157 005a A363     		str	r3, [r4, #56]
1426:Drivers/STM32F4xx_HAL_Driver/Src/stm32f4xx_ll_sdmmc.c ****   
 1158              		.loc 1 1426 3 view .LVU341
1426:Drivers/STM32F4xx_HAL_Driver/Src/stm32f4xx_ll_sdmmc.c ****   
 1159              		.loc 1 1426 17 is_stmt 0 view .LVU342
 1160 005c 0021     		movs	r1, #0
 1161 005e 2046     		mov	r0, r4
 1162 0060 FFF7FEFF 		bl	SDIO_GetResponse
 1163              	.LVL121:
1428:Drivers/STM32F4xx_HAL_Driver/Src/stm32f4xx_ll_sdmmc.c ****   {
 1164              		.loc 1 1428 3 is_stmt 1 view .LVU343
1428:Drivers/STM32F4xx_HAL_Driver/Src/stm32f4xx_ll_sdmmc.c ****   {
 1165              		.loc 1 1428 5 is_stmt 0 view .LVU344
 1166 0064 10F4604F 		tst	r0, #57344
 1167 0068 08D0     		beq	.L89
1434:Drivers/STM32F4xx_HAL_Driver/Src/stm32f4xx_ll_sdmmc.c ****   {
 1168              		.loc 1 1434 8 is_stmt 1 view .LVU345
1434:Drivers/STM32F4xx_HAL_Driver/Src/stm32f4xx_ll_sdmmc.c ****   {
 1169              		.loc 1 1434 10 is_stmt 0 view .LVU346
 1170 006a 10F4804F 		tst	r0, #16384
 1171 006e 0CD1     		bne	.L84
1438:Drivers/STM32F4xx_HAL_Driver/Src/stm32f4xx_ll_sdmmc.c ****   {
 1172              		.loc 1 1438 8 is_stmt 1 view .LVU347
1438:Drivers/STM32F4xx_HAL_Driver/Src/stm32f4xx_ll_sdmmc.c ****   {
 1173              		.loc 1 1438 10 is_stmt 0 view .LVU348
 1174 0070 10F4004F 		tst	r0, #32768
 1175 0074 0CD0     		beq	.L85
1440:Drivers/STM32F4xx_HAL_Driver/Src/stm32f4xx_ll_sdmmc.c ****   }
 1176              		.loc 1 1440 12 view .LVU349
 1177 0076 4FF48050 		mov	r0, #4096
ARM GAS  /tmp/ccDCAHOp.s 			page 52


 1178              	.LVL122:
1440:Drivers/STM32F4xx_HAL_Driver/Src/stm32f4xx_ll_sdmmc.c ****   }
 1179              		.loc 1 1440 12 view .LVU350
 1180 007a 05E0     		b	.L76
 1181              	.LVL123:
 1182              	.L89:
1430:Drivers/STM32F4xx_HAL_Driver/Src/stm32f4xx_ll_sdmmc.c ****     
 1183              		.loc 1 1430 5 is_stmt 1 view .LVU351
1430:Drivers/STM32F4xx_HAL_Driver/Src/stm32f4xx_ll_sdmmc.c ****     
 1184              		.loc 1 1430 13 is_stmt 0 view .LVU352
 1185 007c 000C     		lsrs	r0, r0, #16
 1186              	.LVL124:
1430:Drivers/STM32F4xx_HAL_Driver/Src/stm32f4xx_ll_sdmmc.c ****     
 1187              		.loc 1 1430 11 view .LVU353
 1188 007e 3080     		strh	r0, [r6]	@ movhi
1432:Drivers/STM32F4xx_HAL_Driver/Src/stm32f4xx_ll_sdmmc.c ****   }
 1189              		.loc 1 1432 5 is_stmt 1 view .LVU354
1432:Drivers/STM32F4xx_HAL_Driver/Src/stm32f4xx_ll_sdmmc.c ****   }
 1190              		.loc 1 1432 12 is_stmt 0 view .LVU355
 1191 0080 0020     		movs	r0, #0
 1192 0082 01E0     		b	.L76
 1193              	.LVL125:
 1194              	.L82:
1398:Drivers/STM32F4xx_HAL_Driver/Src/stm32f4xx_ll_sdmmc.c ****     }
 1195              		.loc 1 1398 14 view .LVU356
 1196 0084 4FF00040 		mov	r0, #-2147483648
 1197              	.LVL126:
 1198              	.L76:
1446:Drivers/STM32F4xx_HAL_Driver/Src/stm32f4xx_ll_sdmmc.c **** 
 1199              		.loc 1 1446 1 view .LVU357
 1200 0088 70BD     		pop	{r4, r5, r6, pc}
 1201              	.LVL127:
 1202              	.L84:
1436:Drivers/STM32F4xx_HAL_Driver/Src/stm32f4xx_ll_sdmmc.c ****   }
 1203              		.loc 1 1436 12 view .LVU358
 1204 008a 4FF40050 		mov	r0, #8192
 1205              	.LVL128:
1436:Drivers/STM32F4xx_HAL_Driver/Src/stm32f4xx_ll_sdmmc.c ****   }
 1206              		.loc 1 1436 12 view .LVU359
 1207 008e FBE7     		b	.L76
 1208              	.LVL129:
 1209              	.L85:
1444:Drivers/STM32F4xx_HAL_Driver/Src/stm32f4xx_ll_sdmmc.c ****   }
 1210              		.loc 1 1444 12 view .LVU360
 1211 0090 4FF48030 		mov	r0, #65536
 1212              	.LVL130:
1444:Drivers/STM32F4xx_HAL_Driver/Src/stm32f4xx_ll_sdmmc.c ****   }
 1213              		.loc 1 1444 12 view .LVU361
 1214 0094 F8E7     		b	.L76
 1215              	.L91:
 1216 0096 00BF     		.align	2
 1217              	.L90:
 1218 0098 00000000 		.word	SystemCoreClock
 1219 009c D34D6210 		.word	274877907
 1220              		.cfi_endproc
 1221              	.LFE168:
 1223              		.section	.text.SDIO_ConfigData,"ax",%progbits
ARM GAS  /tmp/ccDCAHOp.s 			page 53


 1224              		.align	1
 1225              		.global	SDIO_ConfigData
 1226              		.syntax unified
 1227              		.thumb
 1228              		.thumb_func
 1229              		.fpu fpv4-sp-d16
 1231              	SDIO_ConfigData:
 1232              	.LVL131:
 1233              	.LFB135:
 441:Drivers/STM32F4xx_HAL_Driver/Src/stm32f4xx_ll_sdmmc.c ****   uint32_t tmpreg = 0U;
 1234              		.loc 1 441 1 is_stmt 1 view -0
 1235              		.cfi_startproc
 1236              		@ args = 0, pretend = 0, frame = 0
 1237              		@ frame_needed = 0, uses_anonymous_args = 0
 1238              		@ link register save eliminated.
 442:Drivers/STM32F4xx_HAL_Driver/Src/stm32f4xx_ll_sdmmc.c ****   
 1239              		.loc 1 442 3 view .LVU363
 445:Drivers/STM32F4xx_HAL_Driver/Src/stm32f4xx_ll_sdmmc.c ****   assert_param(IS_SDIO_BLOCK_SIZE(Data->DataBlockSize));
 1240              		.loc 1 445 3 view .LVU364
 446:Drivers/STM32F4xx_HAL_Driver/Src/stm32f4xx_ll_sdmmc.c ****   assert_param(IS_SDIO_TRANSFER_DIR(Data->TransferDir));
 1241              		.loc 1 446 3 view .LVU365
 447:Drivers/STM32F4xx_HAL_Driver/Src/stm32f4xx_ll_sdmmc.c ****   assert_param(IS_SDIO_TRANSFER_MODE(Data->TransferMode));
 1242              		.loc 1 447 3 view .LVU366
 448:Drivers/STM32F4xx_HAL_Driver/Src/stm32f4xx_ll_sdmmc.c ****   assert_param(IS_SDIO_DPSM(Data->DPSM));
 1243              		.loc 1 448 3 view .LVU367
 449:Drivers/STM32F4xx_HAL_Driver/Src/stm32f4xx_ll_sdmmc.c **** 
 1244              		.loc 1 449 3 view .LVU368
 452:Drivers/STM32F4xx_HAL_Driver/Src/stm32f4xx_ll_sdmmc.c **** 
 1245              		.loc 1 452 3 view .LVU369
 452:Drivers/STM32F4xx_HAL_Driver/Src/stm32f4xx_ll_sdmmc.c **** 
 1246              		.loc 1 452 23 is_stmt 0 view .LVU370
 1247 0000 0B68     		ldr	r3, [r1]
 452:Drivers/STM32F4xx_HAL_Driver/Src/stm32f4xx_ll_sdmmc.c **** 
 1248              		.loc 1 452 17 view .LVU371
 1249 0002 4362     		str	r3, [r0, #36]
 455:Drivers/STM32F4xx_HAL_Driver/Src/stm32f4xx_ll_sdmmc.c **** 
 1250              		.loc 1 455 3 is_stmt 1 view .LVU372
 455:Drivers/STM32F4xx_HAL_Driver/Src/stm32f4xx_ll_sdmmc.c **** 
 1251              		.loc 1 455 21 is_stmt 0 view .LVU373
 1252 0004 4B68     		ldr	r3, [r1, #4]
 455:Drivers/STM32F4xx_HAL_Driver/Src/stm32f4xx_ll_sdmmc.c **** 
 1253              		.loc 1 455 15 view .LVU374
 1254 0006 8362     		str	r3, [r0, #40]
 458:Drivers/STM32F4xx_HAL_Driver/Src/stm32f4xx_ll_sdmmc.c ****                        Data->TransferDir   |\
 1255              		.loc 1 458 3 is_stmt 1 view .LVU375
 458:Drivers/STM32F4xx_HAL_Driver/Src/stm32f4xx_ll_sdmmc.c ****                        Data->TransferDir   |\
 1256              		.loc 1 458 28 is_stmt 0 view .LVU376
 1257 0008 8B68     		ldr	r3, [r1, #8]
 459:Drivers/STM32F4xx_HAL_Driver/Src/stm32f4xx_ll_sdmmc.c ****                        Data->TransferMode  |\
 1258              		.loc 1 459 28 view .LVU377
 1259 000a CA68     		ldr	r2, [r1, #12]
 458:Drivers/STM32F4xx_HAL_Driver/Src/stm32f4xx_ll_sdmmc.c ****                        Data->TransferDir   |\
 1260              		.loc 1 458 44 view .LVU378
 1261 000c 1343     		orrs	r3, r3, r2
 460:Drivers/STM32F4xx_HAL_Driver/Src/stm32f4xx_ll_sdmmc.c ****                        Data->DPSM);
 1262              		.loc 1 460 28 view .LVU379
 1263 000e 0A69     		ldr	r2, [r1, #16]
ARM GAS  /tmp/ccDCAHOp.s 			page 54


 459:Drivers/STM32F4xx_HAL_Driver/Src/stm32f4xx_ll_sdmmc.c ****                        Data->TransferMode  |\
 1264              		.loc 1 459 44 view .LVU380
 1265 0010 1343     		orrs	r3, r3, r2
 461:Drivers/STM32F4xx_HAL_Driver/Src/stm32f4xx_ll_sdmmc.c ****   
 1266              		.loc 1 461 28 view .LVU381
 1267 0012 4A69     		ldr	r2, [r1, #20]
 460:Drivers/STM32F4xx_HAL_Driver/Src/stm32f4xx_ll_sdmmc.c ****                        Data->DPSM);
 1268              		.loc 1 460 44 view .LVU382
 1269 0014 1343     		orrs	r3, r3, r2
 1270              	.LVL132:
 464:Drivers/STM32F4xx_HAL_Driver/Src/stm32f4xx_ll_sdmmc.c **** 
 1271              		.loc 1 464 3 is_stmt 1 view .LVU383
 1272 0016 C26A     		ldr	r2, [r0, #44]
 1273 0018 22F0F702 		bic	r2, r2, #247
 1274 001c 1343     		orrs	r3, r3, r2
 1275              	.LVL133:
 464:Drivers/STM32F4xx_HAL_Driver/Src/stm32f4xx_ll_sdmmc.c **** 
 1276              		.loc 1 464 3 is_stmt 0 view .LVU384
 1277 001e C362     		str	r3, [r0, #44]
 1278              	.LVL134:
 466:Drivers/STM32F4xx_HAL_Driver/Src/stm32f4xx_ll_sdmmc.c **** 
 1279              		.loc 1 466 3 is_stmt 1 view .LVU385
 468:Drivers/STM32F4xx_HAL_Driver/Src/stm32f4xx_ll_sdmmc.c **** 
 1280              		.loc 1 468 1 is_stmt 0 view .LVU386
 1281 0020 0020     		movs	r0, #0
 1282              	.LVL135:
 468:Drivers/STM32F4xx_HAL_Driver/Src/stm32f4xx_ll_sdmmc.c **** 
 1283              		.loc 1 468 1 view .LVU387
 1284 0022 7047     		bx	lr
 1285              		.cfi_endproc
 1286              	.LFE135:
 1288              		.section	.text.SDIO_GetDataCounter,"ax",%progbits
 1289              		.align	1
 1290              		.global	SDIO_GetDataCounter
 1291              		.syntax unified
 1292              		.thumb
 1293              		.thumb_func
 1294              		.fpu fpv4-sp-d16
 1296              	SDIO_GetDataCounter:
 1297              	.LVL136:
 1298              	.LFB136:
 476:Drivers/STM32F4xx_HAL_Driver/Src/stm32f4xx_ll_sdmmc.c ****   return (SDIOx->DCOUNT);
 1299              		.loc 1 476 1 is_stmt 1 view -0
 1300              		.cfi_startproc
 1301              		@ args = 0, pretend = 0, frame = 0
 1302              		@ frame_needed = 0, uses_anonymous_args = 0
 1303              		@ link register save eliminated.
 477:Drivers/STM32F4xx_HAL_Driver/Src/stm32f4xx_ll_sdmmc.c **** }
 1304              		.loc 1 477 3 view .LVU389
 477:Drivers/STM32F4xx_HAL_Driver/Src/stm32f4xx_ll_sdmmc.c **** }
 1305              		.loc 1 477 16 is_stmt 0 view .LVU390
 1306 0000 006B     		ldr	r0, [r0, #48]
 1307              	.LVL137:
 478:Drivers/STM32F4xx_HAL_Driver/Src/stm32f4xx_ll_sdmmc.c **** 
 1308              		.loc 1 478 1 view .LVU391
 1309 0002 7047     		bx	lr
 1310              		.cfi_endproc
ARM GAS  /tmp/ccDCAHOp.s 			page 55


 1311              	.LFE136:
 1313              		.section	.text.SDIO_GetFIFOCount,"ax",%progbits
 1314              		.align	1
 1315              		.global	SDIO_GetFIFOCount
 1316              		.syntax unified
 1317              		.thumb
 1318              		.thumb_func
 1319              		.fpu fpv4-sp-d16
 1321              	SDIO_GetFIFOCount:
 1322              	.LVL138:
 1323              	.LFB137:
 486:Drivers/STM32F4xx_HAL_Driver/Src/stm32f4xx_ll_sdmmc.c ****   return (SDIOx->FIFO);
 1324              		.loc 1 486 1 is_stmt 1 view -0
 1325              		.cfi_startproc
 1326              		@ args = 0, pretend = 0, frame = 0
 1327              		@ frame_needed = 0, uses_anonymous_args = 0
 1328              		@ link register save eliminated.
 487:Drivers/STM32F4xx_HAL_Driver/Src/stm32f4xx_ll_sdmmc.c **** }
 1329              		.loc 1 487 3 view .LVU393
 487:Drivers/STM32F4xx_HAL_Driver/Src/stm32f4xx_ll_sdmmc.c **** }
 1330              		.loc 1 487 16 is_stmt 0 view .LVU394
 1331 0000 D0F88000 		ldr	r0, [r0, #128]
 1332              	.LVL139:
 488:Drivers/STM32F4xx_HAL_Driver/Src/stm32f4xx_ll_sdmmc.c **** 
 1333              		.loc 1 488 1 view .LVU395
 1334 0004 7047     		bx	lr
 1335              		.cfi_endproc
 1336              	.LFE137:
 1338              		.section	.text.SDIO_SetSDMMCReadWaitMode,"ax",%progbits
 1339              		.align	1
 1340              		.global	SDIO_SetSDMMCReadWaitMode
 1341              		.syntax unified
 1342              		.thumb
 1343              		.thumb_func
 1344              		.fpu fpv4-sp-d16
 1346              	SDIO_SetSDMMCReadWaitMode:
 1347              	.LVL140:
 1348              	.LFB138:
 500:Drivers/STM32F4xx_HAL_Driver/Src/stm32f4xx_ll_sdmmc.c ****   /* Check the parameters */
 1349              		.loc 1 500 1 is_stmt 1 view -0
 1350              		.cfi_startproc
 1351              		@ args = 0, pretend = 0, frame = 0
 1352              		@ frame_needed = 0, uses_anonymous_args = 0
 1353              		@ link register save eliminated.
 502:Drivers/STM32F4xx_HAL_Driver/Src/stm32f4xx_ll_sdmmc.c **** 
 1354              		.loc 1 502 3 view .LVU397
 505:Drivers/STM32F4xx_HAL_Driver/Src/stm32f4xx_ll_sdmmc.c ****   
 1355              		.loc 1 505 3 view .LVU398
 1356 0000 C36A     		ldr	r3, [r0, #44]
 1357 0002 23F48063 		bic	r3, r3, #1024
 1358 0006 1943     		orrs	r1, r1, r3
 1359              	.LVL141:
 505:Drivers/STM32F4xx_HAL_Driver/Src/stm32f4xx_ll_sdmmc.c ****   
 1360              		.loc 1 505 3 is_stmt 0 view .LVU399
 1361 0008 C162     		str	r1, [r0, #44]
 507:Drivers/STM32F4xx_HAL_Driver/Src/stm32f4xx_ll_sdmmc.c **** }
 1362              		.loc 1 507 3 is_stmt 1 view .LVU400
ARM GAS  /tmp/ccDCAHOp.s 			page 56


 508:Drivers/STM32F4xx_HAL_Driver/Src/stm32f4xx_ll_sdmmc.c **** 
 1363              		.loc 1 508 1 is_stmt 0 view .LVU401
 1364 000a 0020     		movs	r0, #0
 1365              	.LVL142:
 508:Drivers/STM32F4xx_HAL_Driver/Src/stm32f4xx_ll_sdmmc.c **** 
 1366              		.loc 1 508 1 view .LVU402
 1367 000c 7047     		bx	lr
 1368              		.cfi_endproc
 1369              	.LFE138:
 1371              		.section	.text.SDMMC_CmdBlockLength,"ax",%progbits
 1372              		.align	1
 1373              		.global	SDMMC_CmdBlockLength
 1374              		.syntax unified
 1375              		.thumb
 1376              		.thumb_func
 1377              		.fpu fpv4-sp-d16
 1379              	SDMMC_CmdBlockLength:
 1380              	.LVL143:
 1381              	.LFB139:
 535:Drivers/STM32F4xx_HAL_Driver/Src/stm32f4xx_ll_sdmmc.c ****   SDIO_CmdInitTypeDef  sdmmc_cmdinit;
 1382              		.loc 1 535 1 is_stmt 1 view -0
 1383              		.cfi_startproc
 1384              		@ args = 0, pretend = 0, frame = 24
 1385              		@ frame_needed = 0, uses_anonymous_args = 0
 535:Drivers/STM32F4xx_HAL_Driver/Src/stm32f4xx_ll_sdmmc.c ****   SDIO_CmdInitTypeDef  sdmmc_cmdinit;
 1386              		.loc 1 535 1 is_stmt 0 view .LVU404
 1387 0000 30B5     		push	{r4, r5, lr}
 1388              	.LCFI8:
 1389              		.cfi_def_cfa_offset 12
 1390              		.cfi_offset 4, -12
 1391              		.cfi_offset 5, -8
 1392              		.cfi_offset 14, -4
 1393 0002 87B0     		sub	sp, sp, #28
 1394              	.LCFI9:
 1395              		.cfi_def_cfa_offset 40
 1396 0004 0546     		mov	r5, r0
 536:Drivers/STM32F4xx_HAL_Driver/Src/stm32f4xx_ll_sdmmc.c ****   uint32_t errorstate = SDMMC_ERROR_NONE;
 1397              		.loc 1 536 3 is_stmt 1 view .LVU405
 537:Drivers/STM32F4xx_HAL_Driver/Src/stm32f4xx_ll_sdmmc.c ****   
 1398              		.loc 1 537 3 view .LVU406
 1399              	.LVL144:
 540:Drivers/STM32F4xx_HAL_Driver/Src/stm32f4xx_ll_sdmmc.c ****   sdmmc_cmdinit.CmdIndex         = SDMMC_CMD_SET_BLOCKLEN;
 1400              		.loc 1 540 3 view .LVU407
 540:Drivers/STM32F4xx_HAL_Driver/Src/stm32f4xx_ll_sdmmc.c ****   sdmmc_cmdinit.CmdIndex         = SDMMC_CMD_SET_BLOCKLEN;
 1401              		.loc 1 540 34 is_stmt 0 view .LVU408
 1402 0006 0191     		str	r1, [sp, #4]
 541:Drivers/STM32F4xx_HAL_Driver/Src/stm32f4xx_ll_sdmmc.c ****   sdmmc_cmdinit.Response         = SDIO_RESPONSE_SHORT;
 1403              		.loc 1 541 3 is_stmt 1 view .LVU409
 541:Drivers/STM32F4xx_HAL_Driver/Src/stm32f4xx_ll_sdmmc.c ****   sdmmc_cmdinit.Response         = SDIO_RESPONSE_SHORT;
 1404              		.loc 1 541 34 is_stmt 0 view .LVU410
 1405 0008 1024     		movs	r4, #16
 1406 000a 0294     		str	r4, [sp, #8]
 542:Drivers/STM32F4xx_HAL_Driver/Src/stm32f4xx_ll_sdmmc.c ****   sdmmc_cmdinit.WaitForInterrupt = SDIO_WAIT_NO;
 1407              		.loc 1 542 3 is_stmt 1 view .LVU411
 542:Drivers/STM32F4xx_HAL_Driver/Src/stm32f4xx_ll_sdmmc.c ****   sdmmc_cmdinit.WaitForInterrupt = SDIO_WAIT_NO;
 1408              		.loc 1 542 34 is_stmt 0 view .LVU412
 1409 000c 4023     		movs	r3, #64
ARM GAS  /tmp/ccDCAHOp.s 			page 57


 1410 000e 0393     		str	r3, [sp, #12]
 543:Drivers/STM32F4xx_HAL_Driver/Src/stm32f4xx_ll_sdmmc.c ****   sdmmc_cmdinit.CPSM             = SDIO_CPSM_ENABLE;
 1411              		.loc 1 543 3 is_stmt 1 view .LVU413
 543:Drivers/STM32F4xx_HAL_Driver/Src/stm32f4xx_ll_sdmmc.c ****   sdmmc_cmdinit.CPSM             = SDIO_CPSM_ENABLE;
 1412              		.loc 1 543 34 is_stmt 0 view .LVU414
 1413 0010 0023     		movs	r3, #0
 1414 0012 0493     		str	r3, [sp, #16]
 544:Drivers/STM32F4xx_HAL_Driver/Src/stm32f4xx_ll_sdmmc.c ****   SDIO_SendCommand(SDIOx, &sdmmc_cmdinit);
 1415              		.loc 1 544 3 is_stmt 1 view .LVU415
 544:Drivers/STM32F4xx_HAL_Driver/Src/stm32f4xx_ll_sdmmc.c ****   SDIO_SendCommand(SDIOx, &sdmmc_cmdinit);
 1416              		.loc 1 544 34 is_stmt 0 view .LVU416
 1417 0014 4FF48063 		mov	r3, #1024
 1418 0018 0593     		str	r3, [sp, #20]
 545:Drivers/STM32F4xx_HAL_Driver/Src/stm32f4xx_ll_sdmmc.c ****   
 1419              		.loc 1 545 3 is_stmt 1 view .LVU417
 1420 001a 01A9     		add	r1, sp, #4
 1421              	.LVL145:
 545:Drivers/STM32F4xx_HAL_Driver/Src/stm32f4xx_ll_sdmmc.c ****   
 1422              		.loc 1 545 3 is_stmt 0 view .LVU418
 1423 001c FFF7FEFF 		bl	SDIO_SendCommand
 1424              	.LVL146:
 548:Drivers/STM32F4xx_HAL_Driver/Src/stm32f4xx_ll_sdmmc.c **** 
 1425              		.loc 1 548 3 is_stmt 1 view .LVU419
 548:Drivers/STM32F4xx_HAL_Driver/Src/stm32f4xx_ll_sdmmc.c **** 
 1426              		.loc 1 548 16 is_stmt 0 view .LVU420
 1427 0020 41F28832 		movw	r2, #5000
 1428 0024 2146     		mov	r1, r4
 1429 0026 2846     		mov	r0, r5
 1430 0028 FFF7FEFF 		bl	SDMMC_GetCmdResp1
 1431              	.LVL147:
 550:Drivers/STM32F4xx_HAL_Driver/Src/stm32f4xx_ll_sdmmc.c **** }
 1432              		.loc 1 550 3 is_stmt 1 view .LVU421
 551:Drivers/STM32F4xx_HAL_Driver/Src/stm32f4xx_ll_sdmmc.c **** 
 1433              		.loc 1 551 1 is_stmt 0 view .LVU422
 1434 002c 07B0     		add	sp, sp, #28
 1435              	.LCFI10:
 1436              		.cfi_def_cfa_offset 12
 1437              		@ sp needed
 1438 002e 30BD     		pop	{r4, r5, pc}
 551:Drivers/STM32F4xx_HAL_Driver/Src/stm32f4xx_ll_sdmmc.c **** 
 1439              		.loc 1 551 1 view .LVU423
 1440              		.cfi_endproc
 1441              	.LFE139:
 1443              		.section	.text.SDMMC_CmdReadSingleBlock,"ax",%progbits
 1444              		.align	1
 1445              		.global	SDMMC_CmdReadSingleBlock
 1446              		.syntax unified
 1447              		.thumb
 1448              		.thumb_func
 1449              		.fpu fpv4-sp-d16
 1451              	SDMMC_CmdReadSingleBlock:
 1452              	.LVL148:
 1453              	.LFB140:
 559:Drivers/STM32F4xx_HAL_Driver/Src/stm32f4xx_ll_sdmmc.c ****   SDIO_CmdInitTypeDef  sdmmc_cmdinit;
 1454              		.loc 1 559 1 is_stmt 1 view -0
 1455              		.cfi_startproc
 1456              		@ args = 0, pretend = 0, frame = 24
ARM GAS  /tmp/ccDCAHOp.s 			page 58


 1457              		@ frame_needed = 0, uses_anonymous_args = 0
 559:Drivers/STM32F4xx_HAL_Driver/Src/stm32f4xx_ll_sdmmc.c ****   SDIO_CmdInitTypeDef  sdmmc_cmdinit;
 1458              		.loc 1 559 1 is_stmt 0 view .LVU425
 1459 0000 30B5     		push	{r4, r5, lr}
 1460              	.LCFI11:
 1461              		.cfi_def_cfa_offset 12
 1462              		.cfi_offset 4, -12
 1463              		.cfi_offset 5, -8
 1464              		.cfi_offset 14, -4
 1465 0002 87B0     		sub	sp, sp, #28
 1466              	.LCFI12:
 1467              		.cfi_def_cfa_offset 40
 1468 0004 0546     		mov	r5, r0
 560:Drivers/STM32F4xx_HAL_Driver/Src/stm32f4xx_ll_sdmmc.c ****   uint32_t errorstate = SDMMC_ERROR_NONE;
 1469              		.loc 1 560 3 is_stmt 1 view .LVU426
 561:Drivers/STM32F4xx_HAL_Driver/Src/stm32f4xx_ll_sdmmc.c ****   
 1470              		.loc 1 561 3 view .LVU427
 1471              	.LVL149:
 564:Drivers/STM32F4xx_HAL_Driver/Src/stm32f4xx_ll_sdmmc.c ****   sdmmc_cmdinit.CmdIndex         = SDMMC_CMD_READ_SINGLE_BLOCK;
 1472              		.loc 1 564 3 view .LVU428
 564:Drivers/STM32F4xx_HAL_Driver/Src/stm32f4xx_ll_sdmmc.c ****   sdmmc_cmdinit.CmdIndex         = SDMMC_CMD_READ_SINGLE_BLOCK;
 1473              		.loc 1 564 34 is_stmt 0 view .LVU429
 1474 0006 0191     		str	r1, [sp, #4]
 565:Drivers/STM32F4xx_HAL_Driver/Src/stm32f4xx_ll_sdmmc.c ****   sdmmc_cmdinit.Response         = SDIO_RESPONSE_SHORT;
 1475              		.loc 1 565 3 is_stmt 1 view .LVU430
 565:Drivers/STM32F4xx_HAL_Driver/Src/stm32f4xx_ll_sdmmc.c ****   sdmmc_cmdinit.Response         = SDIO_RESPONSE_SHORT;
 1476              		.loc 1 565 34 is_stmt 0 view .LVU431
 1477 0008 1124     		movs	r4, #17
 1478 000a 0294     		str	r4, [sp, #8]
 566:Drivers/STM32F4xx_HAL_Driver/Src/stm32f4xx_ll_sdmmc.c ****   sdmmc_cmdinit.WaitForInterrupt = SDIO_WAIT_NO;
 1479              		.loc 1 566 3 is_stmt 1 view .LVU432
 566:Drivers/STM32F4xx_HAL_Driver/Src/stm32f4xx_ll_sdmmc.c ****   sdmmc_cmdinit.WaitForInterrupt = SDIO_WAIT_NO;
 1480              		.loc 1 566 34 is_stmt 0 view .LVU433
 1481 000c 4023     		movs	r3, #64
 1482 000e 0393     		str	r3, [sp, #12]
 567:Drivers/STM32F4xx_HAL_Driver/Src/stm32f4xx_ll_sdmmc.c ****   sdmmc_cmdinit.CPSM             = SDIO_CPSM_ENABLE;
 1483              		.loc 1 567 3 is_stmt 1 view .LVU434
 567:Drivers/STM32F4xx_HAL_Driver/Src/stm32f4xx_ll_sdmmc.c ****   sdmmc_cmdinit.CPSM             = SDIO_CPSM_ENABLE;
 1484              		.loc 1 567 34 is_stmt 0 view .LVU435
 1485 0010 0023     		movs	r3, #0
 1486 0012 0493     		str	r3, [sp, #16]
 568:Drivers/STM32F4xx_HAL_Driver/Src/stm32f4xx_ll_sdmmc.c ****   SDIO_SendCommand(SDIOx, &sdmmc_cmdinit);
 1487              		.loc 1 568 3 is_stmt 1 view .LVU436
 568:Drivers/STM32F4xx_HAL_Driver/Src/stm32f4xx_ll_sdmmc.c ****   SDIO_SendCommand(SDIOx, &sdmmc_cmdinit);
 1488              		.loc 1 568 34 is_stmt 0 view .LVU437
 1489 0014 4FF48063 		mov	r3, #1024
 1490 0018 0593     		str	r3, [sp, #20]
 569:Drivers/STM32F4xx_HAL_Driver/Src/stm32f4xx_ll_sdmmc.c ****   
 1491              		.loc 1 569 3 is_stmt 1 view .LVU438
 1492 001a 01A9     		add	r1, sp, #4
 1493              	.LVL150:
 569:Drivers/STM32F4xx_HAL_Driver/Src/stm32f4xx_ll_sdmmc.c ****   
 1494              		.loc 1 569 3 is_stmt 0 view .LVU439
 1495 001c FFF7FEFF 		bl	SDIO_SendCommand
 1496              	.LVL151:
 572:Drivers/STM32F4xx_HAL_Driver/Src/stm32f4xx_ll_sdmmc.c **** 
 1497              		.loc 1 572 3 is_stmt 1 view .LVU440
ARM GAS  /tmp/ccDCAHOp.s 			page 59


 572:Drivers/STM32F4xx_HAL_Driver/Src/stm32f4xx_ll_sdmmc.c **** 
 1498              		.loc 1 572 16 is_stmt 0 view .LVU441
 1499 0020 41F28832 		movw	r2, #5000
 1500 0024 2146     		mov	r1, r4
 1501 0026 2846     		mov	r0, r5
 1502 0028 FFF7FEFF 		bl	SDMMC_GetCmdResp1
 1503              	.LVL152:
 574:Drivers/STM32F4xx_HAL_Driver/Src/stm32f4xx_ll_sdmmc.c **** }
 1504              		.loc 1 574 3 is_stmt 1 view .LVU442
 575:Drivers/STM32F4xx_HAL_Driver/Src/stm32f4xx_ll_sdmmc.c **** 
 1505              		.loc 1 575 1 is_stmt 0 view .LVU443
 1506 002c 07B0     		add	sp, sp, #28
 1507              	.LCFI13:
 1508              		.cfi_def_cfa_offset 12
 1509              		@ sp needed
 1510 002e 30BD     		pop	{r4, r5, pc}
 575:Drivers/STM32F4xx_HAL_Driver/Src/stm32f4xx_ll_sdmmc.c **** 
 1511              		.loc 1 575 1 view .LVU444
 1512              		.cfi_endproc
 1513              	.LFE140:
 1515              		.section	.text.SDMMC_CmdReadMultiBlock,"ax",%progbits
 1516              		.align	1
 1517              		.global	SDMMC_CmdReadMultiBlock
 1518              		.syntax unified
 1519              		.thumb
 1520              		.thumb_func
 1521              		.fpu fpv4-sp-d16
 1523              	SDMMC_CmdReadMultiBlock:
 1524              	.LVL153:
 1525              	.LFB141:
 583:Drivers/STM32F4xx_HAL_Driver/Src/stm32f4xx_ll_sdmmc.c ****   SDIO_CmdInitTypeDef  sdmmc_cmdinit;
 1526              		.loc 1 583 1 is_stmt 1 view -0
 1527              		.cfi_startproc
 1528              		@ args = 0, pretend = 0, frame = 24
 1529              		@ frame_needed = 0, uses_anonymous_args = 0
 583:Drivers/STM32F4xx_HAL_Driver/Src/stm32f4xx_ll_sdmmc.c ****   SDIO_CmdInitTypeDef  sdmmc_cmdinit;
 1530              		.loc 1 583 1 is_stmt 0 view .LVU446
 1531 0000 30B5     		push	{r4, r5, lr}
 1532              	.LCFI14:
 1533              		.cfi_def_cfa_offset 12
 1534              		.cfi_offset 4, -12
 1535              		.cfi_offset 5, -8
 1536              		.cfi_offset 14, -4
 1537 0002 87B0     		sub	sp, sp, #28
 1538              	.LCFI15:
 1539              		.cfi_def_cfa_offset 40
 1540 0004 0546     		mov	r5, r0
 584:Drivers/STM32F4xx_HAL_Driver/Src/stm32f4xx_ll_sdmmc.c ****   uint32_t errorstate = SDMMC_ERROR_NONE;
 1541              		.loc 1 584 3 is_stmt 1 view .LVU447
 585:Drivers/STM32F4xx_HAL_Driver/Src/stm32f4xx_ll_sdmmc.c ****   
 1542              		.loc 1 585 3 view .LVU448
 1543              	.LVL154:
 588:Drivers/STM32F4xx_HAL_Driver/Src/stm32f4xx_ll_sdmmc.c ****   sdmmc_cmdinit.CmdIndex         = SDMMC_CMD_READ_MULT_BLOCK;
 1544              		.loc 1 588 3 view .LVU449
 588:Drivers/STM32F4xx_HAL_Driver/Src/stm32f4xx_ll_sdmmc.c ****   sdmmc_cmdinit.CmdIndex         = SDMMC_CMD_READ_MULT_BLOCK;
 1545              		.loc 1 588 34 is_stmt 0 view .LVU450
 1546 0006 0191     		str	r1, [sp, #4]
ARM GAS  /tmp/ccDCAHOp.s 			page 60


 589:Drivers/STM32F4xx_HAL_Driver/Src/stm32f4xx_ll_sdmmc.c ****   sdmmc_cmdinit.Response         = SDIO_RESPONSE_SHORT;
 1547              		.loc 1 589 3 is_stmt 1 view .LVU451
 589:Drivers/STM32F4xx_HAL_Driver/Src/stm32f4xx_ll_sdmmc.c ****   sdmmc_cmdinit.Response         = SDIO_RESPONSE_SHORT;
 1548              		.loc 1 589 34 is_stmt 0 view .LVU452
 1549 0008 1224     		movs	r4, #18
 1550 000a 0294     		str	r4, [sp, #8]
 590:Drivers/STM32F4xx_HAL_Driver/Src/stm32f4xx_ll_sdmmc.c ****   sdmmc_cmdinit.WaitForInterrupt = SDIO_WAIT_NO;
 1551              		.loc 1 590 3 is_stmt 1 view .LVU453
 590:Drivers/STM32F4xx_HAL_Driver/Src/stm32f4xx_ll_sdmmc.c ****   sdmmc_cmdinit.WaitForInterrupt = SDIO_WAIT_NO;
 1552              		.loc 1 590 34 is_stmt 0 view .LVU454
 1553 000c 4023     		movs	r3, #64
 1554 000e 0393     		str	r3, [sp, #12]
 591:Drivers/STM32F4xx_HAL_Driver/Src/stm32f4xx_ll_sdmmc.c ****   sdmmc_cmdinit.CPSM             = SDIO_CPSM_ENABLE;
 1555              		.loc 1 591 3 is_stmt 1 view .LVU455
 591:Drivers/STM32F4xx_HAL_Driver/Src/stm32f4xx_ll_sdmmc.c ****   sdmmc_cmdinit.CPSM             = SDIO_CPSM_ENABLE;
 1556              		.loc 1 591 34 is_stmt 0 view .LVU456
 1557 0010 0023     		movs	r3, #0
 1558 0012 0493     		str	r3, [sp, #16]
 592:Drivers/STM32F4xx_HAL_Driver/Src/stm32f4xx_ll_sdmmc.c ****   SDIO_SendCommand(SDIOx, &sdmmc_cmdinit);
 1559              		.loc 1 592 3 is_stmt 1 view .LVU457
 592:Drivers/STM32F4xx_HAL_Driver/Src/stm32f4xx_ll_sdmmc.c ****   SDIO_SendCommand(SDIOx, &sdmmc_cmdinit);
 1560              		.loc 1 592 34 is_stmt 0 view .LVU458
 1561 0014 4FF48063 		mov	r3, #1024
 1562 0018 0593     		str	r3, [sp, #20]
 593:Drivers/STM32F4xx_HAL_Driver/Src/stm32f4xx_ll_sdmmc.c ****   
 1563              		.loc 1 593 3 is_stmt 1 view .LVU459
 1564 001a 01A9     		add	r1, sp, #4
 1565              	.LVL155:
 593:Drivers/STM32F4xx_HAL_Driver/Src/stm32f4xx_ll_sdmmc.c ****   
 1566              		.loc 1 593 3 is_stmt 0 view .LVU460
 1567 001c FFF7FEFF 		bl	SDIO_SendCommand
 1568              	.LVL156:
 596:Drivers/STM32F4xx_HAL_Driver/Src/stm32f4xx_ll_sdmmc.c **** 
 1569              		.loc 1 596 3 is_stmt 1 view .LVU461
 596:Drivers/STM32F4xx_HAL_Driver/Src/stm32f4xx_ll_sdmmc.c **** 
 1570              		.loc 1 596 16 is_stmt 0 view .LVU462
 1571 0020 41F28832 		movw	r2, #5000
 1572 0024 2146     		mov	r1, r4
 1573 0026 2846     		mov	r0, r5
 1574 0028 FFF7FEFF 		bl	SDMMC_GetCmdResp1
 1575              	.LVL157:
 598:Drivers/STM32F4xx_HAL_Driver/Src/stm32f4xx_ll_sdmmc.c **** }
 1576              		.loc 1 598 3 is_stmt 1 view .LVU463
 599:Drivers/STM32F4xx_HAL_Driver/Src/stm32f4xx_ll_sdmmc.c **** 
 1577              		.loc 1 599 1 is_stmt 0 view .LVU464
 1578 002c 07B0     		add	sp, sp, #28
 1579              	.LCFI16:
 1580              		.cfi_def_cfa_offset 12
 1581              		@ sp needed
 1582 002e 30BD     		pop	{r4, r5, pc}
 599:Drivers/STM32F4xx_HAL_Driver/Src/stm32f4xx_ll_sdmmc.c **** 
 1583              		.loc 1 599 1 view .LVU465
 1584              		.cfi_endproc
 1585              	.LFE141:
 1587              		.section	.text.SDMMC_CmdWriteSingleBlock,"ax",%progbits
 1588              		.align	1
 1589              		.global	SDMMC_CmdWriteSingleBlock
ARM GAS  /tmp/ccDCAHOp.s 			page 61


 1590              		.syntax unified
 1591              		.thumb
 1592              		.thumb_func
 1593              		.fpu fpv4-sp-d16
 1595              	SDMMC_CmdWriteSingleBlock:
 1596              	.LVL158:
 1597              	.LFB142:
 607:Drivers/STM32F4xx_HAL_Driver/Src/stm32f4xx_ll_sdmmc.c ****   SDIO_CmdInitTypeDef  sdmmc_cmdinit;
 1598              		.loc 1 607 1 is_stmt 1 view -0
 1599              		.cfi_startproc
 1600              		@ args = 0, pretend = 0, frame = 24
 1601              		@ frame_needed = 0, uses_anonymous_args = 0
 607:Drivers/STM32F4xx_HAL_Driver/Src/stm32f4xx_ll_sdmmc.c ****   SDIO_CmdInitTypeDef  sdmmc_cmdinit;
 1602              		.loc 1 607 1 is_stmt 0 view .LVU467
 1603 0000 30B5     		push	{r4, r5, lr}
 1604              	.LCFI17:
 1605              		.cfi_def_cfa_offset 12
 1606              		.cfi_offset 4, -12
 1607              		.cfi_offset 5, -8
 1608              		.cfi_offset 14, -4
 1609 0002 87B0     		sub	sp, sp, #28
 1610              	.LCFI18:
 1611              		.cfi_def_cfa_offset 40
 1612 0004 0546     		mov	r5, r0
 608:Drivers/STM32F4xx_HAL_Driver/Src/stm32f4xx_ll_sdmmc.c ****   uint32_t errorstate = SDMMC_ERROR_NONE;
 1613              		.loc 1 608 3 is_stmt 1 view .LVU468
 609:Drivers/STM32F4xx_HAL_Driver/Src/stm32f4xx_ll_sdmmc.c ****   
 1614              		.loc 1 609 3 view .LVU469
 1615              	.LVL159:
 612:Drivers/STM32F4xx_HAL_Driver/Src/stm32f4xx_ll_sdmmc.c ****   sdmmc_cmdinit.CmdIndex         = SDMMC_CMD_WRITE_SINGLE_BLOCK;
 1616              		.loc 1 612 3 view .LVU470
 612:Drivers/STM32F4xx_HAL_Driver/Src/stm32f4xx_ll_sdmmc.c ****   sdmmc_cmdinit.CmdIndex         = SDMMC_CMD_WRITE_SINGLE_BLOCK;
 1617              		.loc 1 612 34 is_stmt 0 view .LVU471
 1618 0006 0191     		str	r1, [sp, #4]
 613:Drivers/STM32F4xx_HAL_Driver/Src/stm32f4xx_ll_sdmmc.c ****   sdmmc_cmdinit.Response         = SDIO_RESPONSE_SHORT;
 1619              		.loc 1 613 3 is_stmt 1 view .LVU472
 613:Drivers/STM32F4xx_HAL_Driver/Src/stm32f4xx_ll_sdmmc.c ****   sdmmc_cmdinit.Response         = SDIO_RESPONSE_SHORT;
 1620              		.loc 1 613 34 is_stmt 0 view .LVU473
 1621 0008 1824     		movs	r4, #24
 1622 000a 0294     		str	r4, [sp, #8]
 614:Drivers/STM32F4xx_HAL_Driver/Src/stm32f4xx_ll_sdmmc.c ****   sdmmc_cmdinit.WaitForInterrupt = SDIO_WAIT_NO;
 1623              		.loc 1 614 3 is_stmt 1 view .LVU474
 614:Drivers/STM32F4xx_HAL_Driver/Src/stm32f4xx_ll_sdmmc.c ****   sdmmc_cmdinit.WaitForInterrupt = SDIO_WAIT_NO;
 1624              		.loc 1 614 34 is_stmt 0 view .LVU475
 1625 000c 4023     		movs	r3, #64
 1626 000e 0393     		str	r3, [sp, #12]
 615:Drivers/STM32F4xx_HAL_Driver/Src/stm32f4xx_ll_sdmmc.c ****   sdmmc_cmdinit.CPSM             = SDIO_CPSM_ENABLE;
 1627              		.loc 1 615 3 is_stmt 1 view .LVU476
 615:Drivers/STM32F4xx_HAL_Driver/Src/stm32f4xx_ll_sdmmc.c ****   sdmmc_cmdinit.CPSM             = SDIO_CPSM_ENABLE;
 1628              		.loc 1 615 34 is_stmt 0 view .LVU477
 1629 0010 0023     		movs	r3, #0
 1630 0012 0493     		str	r3, [sp, #16]
 616:Drivers/STM32F4xx_HAL_Driver/Src/stm32f4xx_ll_sdmmc.c ****   SDIO_SendCommand(SDIOx, &sdmmc_cmdinit);
 1631              		.loc 1 616 3 is_stmt 1 view .LVU478
 616:Drivers/STM32F4xx_HAL_Driver/Src/stm32f4xx_ll_sdmmc.c ****   SDIO_SendCommand(SDIOx, &sdmmc_cmdinit);
 1632              		.loc 1 616 34 is_stmt 0 view .LVU479
 1633 0014 4FF48063 		mov	r3, #1024
ARM GAS  /tmp/ccDCAHOp.s 			page 62


 1634 0018 0593     		str	r3, [sp, #20]
 617:Drivers/STM32F4xx_HAL_Driver/Src/stm32f4xx_ll_sdmmc.c ****   
 1635              		.loc 1 617 3 is_stmt 1 view .LVU480
 1636 001a 01A9     		add	r1, sp, #4
 1637              	.LVL160:
 617:Drivers/STM32F4xx_HAL_Driver/Src/stm32f4xx_ll_sdmmc.c ****   
 1638              		.loc 1 617 3 is_stmt 0 view .LVU481
 1639 001c FFF7FEFF 		bl	SDIO_SendCommand
 1640              	.LVL161:
 620:Drivers/STM32F4xx_HAL_Driver/Src/stm32f4xx_ll_sdmmc.c **** 
 1641              		.loc 1 620 3 is_stmt 1 view .LVU482
 620:Drivers/STM32F4xx_HAL_Driver/Src/stm32f4xx_ll_sdmmc.c **** 
 1642              		.loc 1 620 16 is_stmt 0 view .LVU483
 1643 0020 41F28832 		movw	r2, #5000
 1644 0024 2146     		mov	r1, r4
 1645 0026 2846     		mov	r0, r5
 1646 0028 FFF7FEFF 		bl	SDMMC_GetCmdResp1
 1647              	.LVL162:
 622:Drivers/STM32F4xx_HAL_Driver/Src/stm32f4xx_ll_sdmmc.c **** }
 1648              		.loc 1 622 3 is_stmt 1 view .LVU484
 623:Drivers/STM32F4xx_HAL_Driver/Src/stm32f4xx_ll_sdmmc.c **** 
 1649              		.loc 1 623 1 is_stmt 0 view .LVU485
 1650 002c 07B0     		add	sp, sp, #28
 1651              	.LCFI19:
 1652              		.cfi_def_cfa_offset 12
 1653              		@ sp needed
 1654 002e 30BD     		pop	{r4, r5, pc}
 623:Drivers/STM32F4xx_HAL_Driver/Src/stm32f4xx_ll_sdmmc.c **** 
 1655              		.loc 1 623 1 view .LVU486
 1656              		.cfi_endproc
 1657              	.LFE142:
 1659              		.section	.text.SDMMC_CmdWriteMultiBlock,"ax",%progbits
 1660              		.align	1
 1661              		.global	SDMMC_CmdWriteMultiBlock
 1662              		.syntax unified
 1663              		.thumb
 1664              		.thumb_func
 1665              		.fpu fpv4-sp-d16
 1667              	SDMMC_CmdWriteMultiBlock:
 1668              	.LVL163:
 1669              	.LFB143:
 631:Drivers/STM32F4xx_HAL_Driver/Src/stm32f4xx_ll_sdmmc.c ****   SDIO_CmdInitTypeDef  sdmmc_cmdinit;
 1670              		.loc 1 631 1 is_stmt 1 view -0
 1671              		.cfi_startproc
 1672              		@ args = 0, pretend = 0, frame = 24
 1673              		@ frame_needed = 0, uses_anonymous_args = 0
 631:Drivers/STM32F4xx_HAL_Driver/Src/stm32f4xx_ll_sdmmc.c ****   SDIO_CmdInitTypeDef  sdmmc_cmdinit;
 1674              		.loc 1 631 1 is_stmt 0 view .LVU488
 1675 0000 30B5     		push	{r4, r5, lr}
 1676              	.LCFI20:
 1677              		.cfi_def_cfa_offset 12
 1678              		.cfi_offset 4, -12
 1679              		.cfi_offset 5, -8
 1680              		.cfi_offset 14, -4
 1681 0002 87B0     		sub	sp, sp, #28
 1682              	.LCFI21:
 1683              		.cfi_def_cfa_offset 40
ARM GAS  /tmp/ccDCAHOp.s 			page 63


 1684 0004 0546     		mov	r5, r0
 632:Drivers/STM32F4xx_HAL_Driver/Src/stm32f4xx_ll_sdmmc.c ****   uint32_t errorstate = SDMMC_ERROR_NONE;
 1685              		.loc 1 632 3 is_stmt 1 view .LVU489
 633:Drivers/STM32F4xx_HAL_Driver/Src/stm32f4xx_ll_sdmmc.c ****   
 1686              		.loc 1 633 3 view .LVU490
 1687              	.LVL164:
 636:Drivers/STM32F4xx_HAL_Driver/Src/stm32f4xx_ll_sdmmc.c ****   sdmmc_cmdinit.CmdIndex         = SDMMC_CMD_WRITE_MULT_BLOCK;
 1688              		.loc 1 636 3 view .LVU491
 636:Drivers/STM32F4xx_HAL_Driver/Src/stm32f4xx_ll_sdmmc.c ****   sdmmc_cmdinit.CmdIndex         = SDMMC_CMD_WRITE_MULT_BLOCK;
 1689              		.loc 1 636 34 is_stmt 0 view .LVU492
 1690 0006 0191     		str	r1, [sp, #4]
 637:Drivers/STM32F4xx_HAL_Driver/Src/stm32f4xx_ll_sdmmc.c ****   sdmmc_cmdinit.Response         = SDIO_RESPONSE_SHORT;
 1691              		.loc 1 637 3 is_stmt 1 view .LVU493
 637:Drivers/STM32F4xx_HAL_Driver/Src/stm32f4xx_ll_sdmmc.c ****   sdmmc_cmdinit.Response         = SDIO_RESPONSE_SHORT;
 1692              		.loc 1 637 34 is_stmt 0 view .LVU494
 1693 0008 1924     		movs	r4, #25
 1694 000a 0294     		str	r4, [sp, #8]
 638:Drivers/STM32F4xx_HAL_Driver/Src/stm32f4xx_ll_sdmmc.c ****   sdmmc_cmdinit.WaitForInterrupt = SDIO_WAIT_NO;
 1695              		.loc 1 638 3 is_stmt 1 view .LVU495
 638:Drivers/STM32F4xx_HAL_Driver/Src/stm32f4xx_ll_sdmmc.c ****   sdmmc_cmdinit.WaitForInterrupt = SDIO_WAIT_NO;
 1696              		.loc 1 638 34 is_stmt 0 view .LVU496
 1697 000c 4023     		movs	r3, #64
 1698 000e 0393     		str	r3, [sp, #12]
 639:Drivers/STM32F4xx_HAL_Driver/Src/stm32f4xx_ll_sdmmc.c ****   sdmmc_cmdinit.CPSM             = SDIO_CPSM_ENABLE;
 1699              		.loc 1 639 3 is_stmt 1 view .LVU497
 639:Drivers/STM32F4xx_HAL_Driver/Src/stm32f4xx_ll_sdmmc.c ****   sdmmc_cmdinit.CPSM             = SDIO_CPSM_ENABLE;
 1700              		.loc 1 639 34 is_stmt 0 view .LVU498
 1701 0010 0023     		movs	r3, #0
 1702 0012 0493     		str	r3, [sp, #16]
 640:Drivers/STM32F4xx_HAL_Driver/Src/stm32f4xx_ll_sdmmc.c ****   SDIO_SendCommand(SDIOx, &sdmmc_cmdinit);
 1703              		.loc 1 640 3 is_stmt 1 view .LVU499
 640:Drivers/STM32F4xx_HAL_Driver/Src/stm32f4xx_ll_sdmmc.c ****   SDIO_SendCommand(SDIOx, &sdmmc_cmdinit);
 1704              		.loc 1 640 34 is_stmt 0 view .LVU500
 1705 0014 4FF48063 		mov	r3, #1024
 1706 0018 0593     		str	r3, [sp, #20]
 641:Drivers/STM32F4xx_HAL_Driver/Src/stm32f4xx_ll_sdmmc.c ****   
 1707              		.loc 1 641 3 is_stmt 1 view .LVU501
 1708 001a 01A9     		add	r1, sp, #4
 1709              	.LVL165:
 641:Drivers/STM32F4xx_HAL_Driver/Src/stm32f4xx_ll_sdmmc.c ****   
 1710              		.loc 1 641 3 is_stmt 0 view .LVU502
 1711 001c FFF7FEFF 		bl	SDIO_SendCommand
 1712              	.LVL166:
 644:Drivers/STM32F4xx_HAL_Driver/Src/stm32f4xx_ll_sdmmc.c **** 
 1713              		.loc 1 644 3 is_stmt 1 view .LVU503
 644:Drivers/STM32F4xx_HAL_Driver/Src/stm32f4xx_ll_sdmmc.c **** 
 1714              		.loc 1 644 16 is_stmt 0 view .LVU504
 1715 0020 41F28832 		movw	r2, #5000
 1716 0024 2146     		mov	r1, r4
 1717 0026 2846     		mov	r0, r5
 1718 0028 FFF7FEFF 		bl	SDMMC_GetCmdResp1
 1719              	.LVL167:
 646:Drivers/STM32F4xx_HAL_Driver/Src/stm32f4xx_ll_sdmmc.c **** }
 1720              		.loc 1 646 3 is_stmt 1 view .LVU505
 647:Drivers/STM32F4xx_HAL_Driver/Src/stm32f4xx_ll_sdmmc.c **** 
 1721              		.loc 1 647 1 is_stmt 0 view .LVU506
 1722 002c 07B0     		add	sp, sp, #28
ARM GAS  /tmp/ccDCAHOp.s 			page 64


 1723              	.LCFI22:
 1724              		.cfi_def_cfa_offset 12
 1725              		@ sp needed
 1726 002e 30BD     		pop	{r4, r5, pc}
 647:Drivers/STM32F4xx_HAL_Driver/Src/stm32f4xx_ll_sdmmc.c **** 
 1727              		.loc 1 647 1 view .LVU507
 1728              		.cfi_endproc
 1729              	.LFE143:
 1731              		.section	.text.SDMMC_CmdSDEraseStartAdd,"ax",%progbits
 1732              		.align	1
 1733              		.global	SDMMC_CmdSDEraseStartAdd
 1734              		.syntax unified
 1735              		.thumb
 1736              		.thumb_func
 1737              		.fpu fpv4-sp-d16
 1739              	SDMMC_CmdSDEraseStartAdd:
 1740              	.LVL168:
 1741              	.LFB144:
 655:Drivers/STM32F4xx_HAL_Driver/Src/stm32f4xx_ll_sdmmc.c ****   SDIO_CmdInitTypeDef  sdmmc_cmdinit;
 1742              		.loc 1 655 1 is_stmt 1 view -0
 1743              		.cfi_startproc
 1744              		@ args = 0, pretend = 0, frame = 24
 1745              		@ frame_needed = 0, uses_anonymous_args = 0
 655:Drivers/STM32F4xx_HAL_Driver/Src/stm32f4xx_ll_sdmmc.c ****   SDIO_CmdInitTypeDef  sdmmc_cmdinit;
 1746              		.loc 1 655 1 is_stmt 0 view .LVU509
 1747 0000 30B5     		push	{r4, r5, lr}
 1748              	.LCFI23:
 1749              		.cfi_def_cfa_offset 12
 1750              		.cfi_offset 4, -12
 1751              		.cfi_offset 5, -8
 1752              		.cfi_offset 14, -4
 1753 0002 87B0     		sub	sp, sp, #28
 1754              	.LCFI24:
 1755              		.cfi_def_cfa_offset 40
 1756 0004 0546     		mov	r5, r0
 656:Drivers/STM32F4xx_HAL_Driver/Src/stm32f4xx_ll_sdmmc.c ****   uint32_t errorstate = SDMMC_ERROR_NONE;
 1757              		.loc 1 656 3 is_stmt 1 view .LVU510
 657:Drivers/STM32F4xx_HAL_Driver/Src/stm32f4xx_ll_sdmmc.c ****   
 1758              		.loc 1 657 3 view .LVU511
 1759              	.LVL169:
 660:Drivers/STM32F4xx_HAL_Driver/Src/stm32f4xx_ll_sdmmc.c ****   sdmmc_cmdinit.CmdIndex         = SDMMC_CMD_SD_ERASE_GRP_START;
 1760              		.loc 1 660 3 view .LVU512
 660:Drivers/STM32F4xx_HAL_Driver/Src/stm32f4xx_ll_sdmmc.c ****   sdmmc_cmdinit.CmdIndex         = SDMMC_CMD_SD_ERASE_GRP_START;
 1761              		.loc 1 660 34 is_stmt 0 view .LVU513
 1762 0006 0191     		str	r1, [sp, #4]
 661:Drivers/STM32F4xx_HAL_Driver/Src/stm32f4xx_ll_sdmmc.c ****   sdmmc_cmdinit.Response         = SDIO_RESPONSE_SHORT;
 1763              		.loc 1 661 3 is_stmt 1 view .LVU514
 661:Drivers/STM32F4xx_HAL_Driver/Src/stm32f4xx_ll_sdmmc.c ****   sdmmc_cmdinit.Response         = SDIO_RESPONSE_SHORT;
 1764              		.loc 1 661 34 is_stmt 0 view .LVU515
 1765 0008 2024     		movs	r4, #32
 1766 000a 0294     		str	r4, [sp, #8]
 662:Drivers/STM32F4xx_HAL_Driver/Src/stm32f4xx_ll_sdmmc.c ****   sdmmc_cmdinit.WaitForInterrupt = SDIO_WAIT_NO;
 1767              		.loc 1 662 3 is_stmt 1 view .LVU516
 662:Drivers/STM32F4xx_HAL_Driver/Src/stm32f4xx_ll_sdmmc.c ****   sdmmc_cmdinit.WaitForInterrupt = SDIO_WAIT_NO;
 1768              		.loc 1 662 34 is_stmt 0 view .LVU517
 1769 000c 4023     		movs	r3, #64
 1770 000e 0393     		str	r3, [sp, #12]
ARM GAS  /tmp/ccDCAHOp.s 			page 65


 663:Drivers/STM32F4xx_HAL_Driver/Src/stm32f4xx_ll_sdmmc.c ****   sdmmc_cmdinit.CPSM             = SDIO_CPSM_ENABLE;
 1771              		.loc 1 663 3 is_stmt 1 view .LVU518
 663:Drivers/STM32F4xx_HAL_Driver/Src/stm32f4xx_ll_sdmmc.c ****   sdmmc_cmdinit.CPSM             = SDIO_CPSM_ENABLE;
 1772              		.loc 1 663 34 is_stmt 0 view .LVU519
 1773 0010 0023     		movs	r3, #0
 1774 0012 0493     		str	r3, [sp, #16]
 664:Drivers/STM32F4xx_HAL_Driver/Src/stm32f4xx_ll_sdmmc.c ****   SDIO_SendCommand(SDIOx, &sdmmc_cmdinit);
 1775              		.loc 1 664 3 is_stmt 1 view .LVU520
 664:Drivers/STM32F4xx_HAL_Driver/Src/stm32f4xx_ll_sdmmc.c ****   SDIO_SendCommand(SDIOx, &sdmmc_cmdinit);
 1776              		.loc 1 664 34 is_stmt 0 view .LVU521
 1777 0014 4FF48063 		mov	r3, #1024
 1778 0018 0593     		str	r3, [sp, #20]
 665:Drivers/STM32F4xx_HAL_Driver/Src/stm32f4xx_ll_sdmmc.c ****   
 1779              		.loc 1 665 3 is_stmt 1 view .LVU522
 1780 001a 01A9     		add	r1, sp, #4
 1781              	.LVL170:
 665:Drivers/STM32F4xx_HAL_Driver/Src/stm32f4xx_ll_sdmmc.c ****   
 1782              		.loc 1 665 3 is_stmt 0 view .LVU523
 1783 001c FFF7FEFF 		bl	SDIO_SendCommand
 1784              	.LVL171:
 668:Drivers/STM32F4xx_HAL_Driver/Src/stm32f4xx_ll_sdmmc.c **** 
 1785              		.loc 1 668 3 is_stmt 1 view .LVU524
 668:Drivers/STM32F4xx_HAL_Driver/Src/stm32f4xx_ll_sdmmc.c **** 
 1786              		.loc 1 668 16 is_stmt 0 view .LVU525
 1787 0020 41F28832 		movw	r2, #5000
 1788 0024 2146     		mov	r1, r4
 1789 0026 2846     		mov	r0, r5
 1790 0028 FFF7FEFF 		bl	SDMMC_GetCmdResp1
 1791              	.LVL172:
 670:Drivers/STM32F4xx_HAL_Driver/Src/stm32f4xx_ll_sdmmc.c **** }
 1792              		.loc 1 670 3 is_stmt 1 view .LVU526
 671:Drivers/STM32F4xx_HAL_Driver/Src/stm32f4xx_ll_sdmmc.c **** 
 1793              		.loc 1 671 1 is_stmt 0 view .LVU527
 1794 002c 07B0     		add	sp, sp, #28
 1795              	.LCFI25:
 1796              		.cfi_def_cfa_offset 12
 1797              		@ sp needed
 1798 002e 30BD     		pop	{r4, r5, pc}
 671:Drivers/STM32F4xx_HAL_Driver/Src/stm32f4xx_ll_sdmmc.c **** 
 1799              		.loc 1 671 1 view .LVU528
 1800              		.cfi_endproc
 1801              	.LFE144:
 1803              		.section	.text.SDMMC_CmdSDEraseEndAdd,"ax",%progbits
 1804              		.align	1
 1805              		.global	SDMMC_CmdSDEraseEndAdd
 1806              		.syntax unified
 1807              		.thumb
 1808              		.thumb_func
 1809              		.fpu fpv4-sp-d16
 1811              	SDMMC_CmdSDEraseEndAdd:
 1812              	.LVL173:
 1813              	.LFB145:
 679:Drivers/STM32F4xx_HAL_Driver/Src/stm32f4xx_ll_sdmmc.c ****   SDIO_CmdInitTypeDef  sdmmc_cmdinit;
 1814              		.loc 1 679 1 is_stmt 1 view -0
 1815              		.cfi_startproc
 1816              		@ args = 0, pretend = 0, frame = 24
 1817              		@ frame_needed = 0, uses_anonymous_args = 0
ARM GAS  /tmp/ccDCAHOp.s 			page 66


 679:Drivers/STM32F4xx_HAL_Driver/Src/stm32f4xx_ll_sdmmc.c ****   SDIO_CmdInitTypeDef  sdmmc_cmdinit;
 1818              		.loc 1 679 1 is_stmt 0 view .LVU530
 1819 0000 30B5     		push	{r4, r5, lr}
 1820              	.LCFI26:
 1821              		.cfi_def_cfa_offset 12
 1822              		.cfi_offset 4, -12
 1823              		.cfi_offset 5, -8
 1824              		.cfi_offset 14, -4
 1825 0002 87B0     		sub	sp, sp, #28
 1826              	.LCFI27:
 1827              		.cfi_def_cfa_offset 40
 1828 0004 0546     		mov	r5, r0
 680:Drivers/STM32F4xx_HAL_Driver/Src/stm32f4xx_ll_sdmmc.c ****   uint32_t errorstate = SDMMC_ERROR_NONE;
 1829              		.loc 1 680 3 is_stmt 1 view .LVU531
 681:Drivers/STM32F4xx_HAL_Driver/Src/stm32f4xx_ll_sdmmc.c ****   
 1830              		.loc 1 681 3 view .LVU532
 1831              	.LVL174:
 684:Drivers/STM32F4xx_HAL_Driver/Src/stm32f4xx_ll_sdmmc.c ****   sdmmc_cmdinit.CmdIndex         = SDMMC_CMD_SD_ERASE_GRP_END;
 1832              		.loc 1 684 3 view .LVU533
 684:Drivers/STM32F4xx_HAL_Driver/Src/stm32f4xx_ll_sdmmc.c ****   sdmmc_cmdinit.CmdIndex         = SDMMC_CMD_SD_ERASE_GRP_END;
 1833              		.loc 1 684 34 is_stmt 0 view .LVU534
 1834 0006 0191     		str	r1, [sp, #4]
 685:Drivers/STM32F4xx_HAL_Driver/Src/stm32f4xx_ll_sdmmc.c ****   sdmmc_cmdinit.Response         = SDIO_RESPONSE_SHORT;
 1835              		.loc 1 685 3 is_stmt 1 view .LVU535
 685:Drivers/STM32F4xx_HAL_Driver/Src/stm32f4xx_ll_sdmmc.c ****   sdmmc_cmdinit.Response         = SDIO_RESPONSE_SHORT;
 1836              		.loc 1 685 34 is_stmt 0 view .LVU536
 1837 0008 2124     		movs	r4, #33
 1838 000a 0294     		str	r4, [sp, #8]
 686:Drivers/STM32F4xx_HAL_Driver/Src/stm32f4xx_ll_sdmmc.c ****   sdmmc_cmdinit.WaitForInterrupt = SDIO_WAIT_NO;
 1839              		.loc 1 686 3 is_stmt 1 view .LVU537
 686:Drivers/STM32F4xx_HAL_Driver/Src/stm32f4xx_ll_sdmmc.c ****   sdmmc_cmdinit.WaitForInterrupt = SDIO_WAIT_NO;
 1840              		.loc 1 686 34 is_stmt 0 view .LVU538
 1841 000c 4023     		movs	r3, #64
 1842 000e 0393     		str	r3, [sp, #12]
 687:Drivers/STM32F4xx_HAL_Driver/Src/stm32f4xx_ll_sdmmc.c ****   sdmmc_cmdinit.CPSM             = SDIO_CPSM_ENABLE;
 1843              		.loc 1 687 3 is_stmt 1 view .LVU539
 687:Drivers/STM32F4xx_HAL_Driver/Src/stm32f4xx_ll_sdmmc.c ****   sdmmc_cmdinit.CPSM             = SDIO_CPSM_ENABLE;
 1844              		.loc 1 687 34 is_stmt 0 view .LVU540
 1845 0010 0023     		movs	r3, #0
 1846 0012 0493     		str	r3, [sp, #16]
 688:Drivers/STM32F4xx_HAL_Driver/Src/stm32f4xx_ll_sdmmc.c ****   SDIO_SendCommand(SDIOx, &sdmmc_cmdinit);
 1847              		.loc 1 688 3 is_stmt 1 view .LVU541
 688:Drivers/STM32F4xx_HAL_Driver/Src/stm32f4xx_ll_sdmmc.c ****   SDIO_SendCommand(SDIOx, &sdmmc_cmdinit);
 1848              		.loc 1 688 34 is_stmt 0 view .LVU542
 1849 0014 4FF48063 		mov	r3, #1024
 1850 0018 0593     		str	r3, [sp, #20]
 689:Drivers/STM32F4xx_HAL_Driver/Src/stm32f4xx_ll_sdmmc.c ****   
 1851              		.loc 1 689 3 is_stmt 1 view .LVU543
 1852 001a 01A9     		add	r1, sp, #4
 1853              	.LVL175:
 689:Drivers/STM32F4xx_HAL_Driver/Src/stm32f4xx_ll_sdmmc.c ****   
 1854              		.loc 1 689 3 is_stmt 0 view .LVU544
 1855 001c FFF7FEFF 		bl	SDIO_SendCommand
 1856              	.LVL176:
 692:Drivers/STM32F4xx_HAL_Driver/Src/stm32f4xx_ll_sdmmc.c **** 
 1857              		.loc 1 692 3 is_stmt 1 view .LVU545
 692:Drivers/STM32F4xx_HAL_Driver/Src/stm32f4xx_ll_sdmmc.c **** 
ARM GAS  /tmp/ccDCAHOp.s 			page 67


 1858              		.loc 1 692 16 is_stmt 0 view .LVU546
 1859 0020 41F28832 		movw	r2, #5000
 1860 0024 2146     		mov	r1, r4
 1861 0026 2846     		mov	r0, r5
 1862 0028 FFF7FEFF 		bl	SDMMC_GetCmdResp1
 1863              	.LVL177:
 694:Drivers/STM32F4xx_HAL_Driver/Src/stm32f4xx_ll_sdmmc.c **** }
 1864              		.loc 1 694 3 is_stmt 1 view .LVU547
 695:Drivers/STM32F4xx_HAL_Driver/Src/stm32f4xx_ll_sdmmc.c **** 
 1865              		.loc 1 695 1 is_stmt 0 view .LVU548
 1866 002c 07B0     		add	sp, sp, #28
 1867              	.LCFI28:
 1868              		.cfi_def_cfa_offset 12
 1869              		@ sp needed
 1870 002e 30BD     		pop	{r4, r5, pc}
 695:Drivers/STM32F4xx_HAL_Driver/Src/stm32f4xx_ll_sdmmc.c **** 
 1871              		.loc 1 695 1 view .LVU549
 1872              		.cfi_endproc
 1873              	.LFE145:
 1875              		.section	.text.SDMMC_CmdEraseStartAdd,"ax",%progbits
 1876              		.align	1
 1877              		.global	SDMMC_CmdEraseStartAdd
 1878              		.syntax unified
 1879              		.thumb
 1880              		.thumb_func
 1881              		.fpu fpv4-sp-d16
 1883              	SDMMC_CmdEraseStartAdd:
 1884              	.LVL178:
 1885              	.LFB146:
 703:Drivers/STM32F4xx_HAL_Driver/Src/stm32f4xx_ll_sdmmc.c ****   SDIO_CmdInitTypeDef  sdmmc_cmdinit;
 1886              		.loc 1 703 1 is_stmt 1 view -0
 1887              		.cfi_startproc
 1888              		@ args = 0, pretend = 0, frame = 24
 1889              		@ frame_needed = 0, uses_anonymous_args = 0
 703:Drivers/STM32F4xx_HAL_Driver/Src/stm32f4xx_ll_sdmmc.c ****   SDIO_CmdInitTypeDef  sdmmc_cmdinit;
 1890              		.loc 1 703 1 is_stmt 0 view .LVU551
 1891 0000 30B5     		push	{r4, r5, lr}
 1892              	.LCFI29:
 1893              		.cfi_def_cfa_offset 12
 1894              		.cfi_offset 4, -12
 1895              		.cfi_offset 5, -8
 1896              		.cfi_offset 14, -4
 1897 0002 87B0     		sub	sp, sp, #28
 1898              	.LCFI30:
 1899              		.cfi_def_cfa_offset 40
 1900 0004 0546     		mov	r5, r0
 704:Drivers/STM32F4xx_HAL_Driver/Src/stm32f4xx_ll_sdmmc.c ****   uint32_t errorstate = SDMMC_ERROR_NONE;
 1901              		.loc 1 704 3 is_stmt 1 view .LVU552
 705:Drivers/STM32F4xx_HAL_Driver/Src/stm32f4xx_ll_sdmmc.c ****   
 1902              		.loc 1 705 3 view .LVU553
 1903              	.LVL179:
 708:Drivers/STM32F4xx_HAL_Driver/Src/stm32f4xx_ll_sdmmc.c ****   sdmmc_cmdinit.CmdIndex         = SDMMC_CMD_ERASE_GRP_START;
 1904              		.loc 1 708 3 view .LVU554
 708:Drivers/STM32F4xx_HAL_Driver/Src/stm32f4xx_ll_sdmmc.c ****   sdmmc_cmdinit.CmdIndex         = SDMMC_CMD_ERASE_GRP_START;
 1905              		.loc 1 708 34 is_stmt 0 view .LVU555
 1906 0006 0191     		str	r1, [sp, #4]
 709:Drivers/STM32F4xx_HAL_Driver/Src/stm32f4xx_ll_sdmmc.c ****   sdmmc_cmdinit.Response         = SDIO_RESPONSE_SHORT;
ARM GAS  /tmp/ccDCAHOp.s 			page 68


 1907              		.loc 1 709 3 is_stmt 1 view .LVU556
 709:Drivers/STM32F4xx_HAL_Driver/Src/stm32f4xx_ll_sdmmc.c ****   sdmmc_cmdinit.Response         = SDIO_RESPONSE_SHORT;
 1908              		.loc 1 709 34 is_stmt 0 view .LVU557
 1909 0008 2324     		movs	r4, #35
 1910 000a 0294     		str	r4, [sp, #8]
 710:Drivers/STM32F4xx_HAL_Driver/Src/stm32f4xx_ll_sdmmc.c ****   sdmmc_cmdinit.WaitForInterrupt = SDIO_WAIT_NO;
 1911              		.loc 1 710 3 is_stmt 1 view .LVU558
 710:Drivers/STM32F4xx_HAL_Driver/Src/stm32f4xx_ll_sdmmc.c ****   sdmmc_cmdinit.WaitForInterrupt = SDIO_WAIT_NO;
 1912              		.loc 1 710 34 is_stmt 0 view .LVU559
 1913 000c 4023     		movs	r3, #64
 1914 000e 0393     		str	r3, [sp, #12]
 711:Drivers/STM32F4xx_HAL_Driver/Src/stm32f4xx_ll_sdmmc.c ****   sdmmc_cmdinit.CPSM             = SDIO_CPSM_ENABLE;
 1915              		.loc 1 711 3 is_stmt 1 view .LVU560
 711:Drivers/STM32F4xx_HAL_Driver/Src/stm32f4xx_ll_sdmmc.c ****   sdmmc_cmdinit.CPSM             = SDIO_CPSM_ENABLE;
 1916              		.loc 1 711 34 is_stmt 0 view .LVU561
 1917 0010 0023     		movs	r3, #0
 1918 0012 0493     		str	r3, [sp, #16]
 712:Drivers/STM32F4xx_HAL_Driver/Src/stm32f4xx_ll_sdmmc.c ****   SDIO_SendCommand(SDIOx, &sdmmc_cmdinit);
 1919              		.loc 1 712 3 is_stmt 1 view .LVU562
 712:Drivers/STM32F4xx_HAL_Driver/Src/stm32f4xx_ll_sdmmc.c ****   SDIO_SendCommand(SDIOx, &sdmmc_cmdinit);
 1920              		.loc 1 712 34 is_stmt 0 view .LVU563
 1921 0014 4FF48063 		mov	r3, #1024
 1922 0018 0593     		str	r3, [sp, #20]
 713:Drivers/STM32F4xx_HAL_Driver/Src/stm32f4xx_ll_sdmmc.c ****   
 1923              		.loc 1 713 3 is_stmt 1 view .LVU564
 1924 001a 01A9     		add	r1, sp, #4
 1925              	.LVL180:
 713:Drivers/STM32F4xx_HAL_Driver/Src/stm32f4xx_ll_sdmmc.c ****   
 1926              		.loc 1 713 3 is_stmt 0 view .LVU565
 1927 001c FFF7FEFF 		bl	SDIO_SendCommand
 1928              	.LVL181:
 716:Drivers/STM32F4xx_HAL_Driver/Src/stm32f4xx_ll_sdmmc.c **** 
 1929              		.loc 1 716 3 is_stmt 1 view .LVU566
 716:Drivers/STM32F4xx_HAL_Driver/Src/stm32f4xx_ll_sdmmc.c **** 
 1930              		.loc 1 716 16 is_stmt 0 view .LVU567
 1931 0020 41F28832 		movw	r2, #5000
 1932 0024 2146     		mov	r1, r4
 1933 0026 2846     		mov	r0, r5
 1934 0028 FFF7FEFF 		bl	SDMMC_GetCmdResp1
 1935              	.LVL182:
 718:Drivers/STM32F4xx_HAL_Driver/Src/stm32f4xx_ll_sdmmc.c **** }
 1936              		.loc 1 718 3 is_stmt 1 view .LVU568
 719:Drivers/STM32F4xx_HAL_Driver/Src/stm32f4xx_ll_sdmmc.c **** 
 1937              		.loc 1 719 1 is_stmt 0 view .LVU569
 1938 002c 07B0     		add	sp, sp, #28
 1939              	.LCFI31:
 1940              		.cfi_def_cfa_offset 12
 1941              		@ sp needed
 1942 002e 30BD     		pop	{r4, r5, pc}
 719:Drivers/STM32F4xx_HAL_Driver/Src/stm32f4xx_ll_sdmmc.c **** 
 1943              		.loc 1 719 1 view .LVU570
 1944              		.cfi_endproc
 1945              	.LFE146:
 1947              		.section	.text.SDMMC_CmdEraseEndAdd,"ax",%progbits
 1948              		.align	1
 1949              		.global	SDMMC_CmdEraseEndAdd
 1950              		.syntax unified
ARM GAS  /tmp/ccDCAHOp.s 			page 69


 1951              		.thumb
 1952              		.thumb_func
 1953              		.fpu fpv4-sp-d16
 1955              	SDMMC_CmdEraseEndAdd:
 1956              	.LVL183:
 1957              	.LFB147:
 727:Drivers/STM32F4xx_HAL_Driver/Src/stm32f4xx_ll_sdmmc.c ****   SDIO_CmdInitTypeDef  sdmmc_cmdinit;
 1958              		.loc 1 727 1 is_stmt 1 view -0
 1959              		.cfi_startproc
 1960              		@ args = 0, pretend = 0, frame = 24
 1961              		@ frame_needed = 0, uses_anonymous_args = 0
 727:Drivers/STM32F4xx_HAL_Driver/Src/stm32f4xx_ll_sdmmc.c ****   SDIO_CmdInitTypeDef  sdmmc_cmdinit;
 1962              		.loc 1 727 1 is_stmt 0 view .LVU572
 1963 0000 30B5     		push	{r4, r5, lr}
 1964              	.LCFI32:
 1965              		.cfi_def_cfa_offset 12
 1966              		.cfi_offset 4, -12
 1967              		.cfi_offset 5, -8
 1968              		.cfi_offset 14, -4
 1969 0002 87B0     		sub	sp, sp, #28
 1970              	.LCFI33:
 1971              		.cfi_def_cfa_offset 40
 1972 0004 0546     		mov	r5, r0
 728:Drivers/STM32F4xx_HAL_Driver/Src/stm32f4xx_ll_sdmmc.c ****   uint32_t errorstate = SDMMC_ERROR_NONE;
 1973              		.loc 1 728 3 is_stmt 1 view .LVU573
 729:Drivers/STM32F4xx_HAL_Driver/Src/stm32f4xx_ll_sdmmc.c ****   
 1974              		.loc 1 729 3 view .LVU574
 1975              	.LVL184:
 732:Drivers/STM32F4xx_HAL_Driver/Src/stm32f4xx_ll_sdmmc.c ****   sdmmc_cmdinit.CmdIndex         = SDMMC_CMD_ERASE_GRP_END;
 1976              		.loc 1 732 3 view .LVU575
 732:Drivers/STM32F4xx_HAL_Driver/Src/stm32f4xx_ll_sdmmc.c ****   sdmmc_cmdinit.CmdIndex         = SDMMC_CMD_ERASE_GRP_END;
 1977              		.loc 1 732 34 is_stmt 0 view .LVU576
 1978 0006 0191     		str	r1, [sp, #4]
 733:Drivers/STM32F4xx_HAL_Driver/Src/stm32f4xx_ll_sdmmc.c ****   sdmmc_cmdinit.Response         = SDIO_RESPONSE_SHORT;
 1979              		.loc 1 733 3 is_stmt 1 view .LVU577
 733:Drivers/STM32F4xx_HAL_Driver/Src/stm32f4xx_ll_sdmmc.c ****   sdmmc_cmdinit.Response         = SDIO_RESPONSE_SHORT;
 1980              		.loc 1 733 34 is_stmt 0 view .LVU578
 1981 0008 2424     		movs	r4, #36
 1982 000a 0294     		str	r4, [sp, #8]
 734:Drivers/STM32F4xx_HAL_Driver/Src/stm32f4xx_ll_sdmmc.c ****   sdmmc_cmdinit.WaitForInterrupt = SDIO_WAIT_NO;
 1983              		.loc 1 734 3 is_stmt 1 view .LVU579
 734:Drivers/STM32F4xx_HAL_Driver/Src/stm32f4xx_ll_sdmmc.c ****   sdmmc_cmdinit.WaitForInterrupt = SDIO_WAIT_NO;
 1984              		.loc 1 734 34 is_stmt 0 view .LVU580
 1985 000c 4023     		movs	r3, #64
 1986 000e 0393     		str	r3, [sp, #12]
 735:Drivers/STM32F4xx_HAL_Driver/Src/stm32f4xx_ll_sdmmc.c ****   sdmmc_cmdinit.CPSM             = SDIO_CPSM_ENABLE;
 1987              		.loc 1 735 3 is_stmt 1 view .LVU581
 735:Drivers/STM32F4xx_HAL_Driver/Src/stm32f4xx_ll_sdmmc.c ****   sdmmc_cmdinit.CPSM             = SDIO_CPSM_ENABLE;
 1988              		.loc 1 735 34 is_stmt 0 view .LVU582
 1989 0010 0023     		movs	r3, #0
 1990 0012 0493     		str	r3, [sp, #16]
 736:Drivers/STM32F4xx_HAL_Driver/Src/stm32f4xx_ll_sdmmc.c ****   SDIO_SendCommand(SDIOx, &sdmmc_cmdinit);
 1991              		.loc 1 736 3 is_stmt 1 view .LVU583
 736:Drivers/STM32F4xx_HAL_Driver/Src/stm32f4xx_ll_sdmmc.c ****   SDIO_SendCommand(SDIOx, &sdmmc_cmdinit);
 1992              		.loc 1 736 34 is_stmt 0 view .LVU584
 1993 0014 4FF48063 		mov	r3, #1024
 1994 0018 0593     		str	r3, [sp, #20]
ARM GAS  /tmp/ccDCAHOp.s 			page 70


 737:Drivers/STM32F4xx_HAL_Driver/Src/stm32f4xx_ll_sdmmc.c ****   
 1995              		.loc 1 737 3 is_stmt 1 view .LVU585
 1996 001a 01A9     		add	r1, sp, #4
 1997              	.LVL185:
 737:Drivers/STM32F4xx_HAL_Driver/Src/stm32f4xx_ll_sdmmc.c ****   
 1998              		.loc 1 737 3 is_stmt 0 view .LVU586
 1999 001c FFF7FEFF 		bl	SDIO_SendCommand
 2000              	.LVL186:
 740:Drivers/STM32F4xx_HAL_Driver/Src/stm32f4xx_ll_sdmmc.c **** 
 2001              		.loc 1 740 3 is_stmt 1 view .LVU587
 740:Drivers/STM32F4xx_HAL_Driver/Src/stm32f4xx_ll_sdmmc.c **** 
 2002              		.loc 1 740 16 is_stmt 0 view .LVU588
 2003 0020 41F28832 		movw	r2, #5000
 2004 0024 2146     		mov	r1, r4
 2005 0026 2846     		mov	r0, r5
 2006 0028 FFF7FEFF 		bl	SDMMC_GetCmdResp1
 2007              	.LVL187:
 742:Drivers/STM32F4xx_HAL_Driver/Src/stm32f4xx_ll_sdmmc.c **** }
 2008              		.loc 1 742 3 is_stmt 1 view .LVU589
 743:Drivers/STM32F4xx_HAL_Driver/Src/stm32f4xx_ll_sdmmc.c **** 
 2009              		.loc 1 743 1 is_stmt 0 view .LVU590
 2010 002c 07B0     		add	sp, sp, #28
 2011              	.LCFI34:
 2012              		.cfi_def_cfa_offset 12
 2013              		@ sp needed
 2014 002e 30BD     		pop	{r4, r5, pc}
 743:Drivers/STM32F4xx_HAL_Driver/Src/stm32f4xx_ll_sdmmc.c **** 
 2015              		.loc 1 743 1 view .LVU591
 2016              		.cfi_endproc
 2017              	.LFE147:
 2019              		.section	.text.SDMMC_CmdErase,"ax",%progbits
 2020              		.align	1
 2021              		.global	SDMMC_CmdErase
 2022              		.syntax unified
 2023              		.thumb
 2024              		.thumb_func
 2025              		.fpu fpv4-sp-d16
 2027              	SDMMC_CmdErase:
 2028              	.LVL188:
 2029              	.LFB148:
 751:Drivers/STM32F4xx_HAL_Driver/Src/stm32f4xx_ll_sdmmc.c ****   SDIO_CmdInitTypeDef  sdmmc_cmdinit;
 2030              		.loc 1 751 1 is_stmt 1 view -0
 2031              		.cfi_startproc
 2032              		@ args = 0, pretend = 0, frame = 24
 2033              		@ frame_needed = 0, uses_anonymous_args = 0
 751:Drivers/STM32F4xx_HAL_Driver/Src/stm32f4xx_ll_sdmmc.c ****   SDIO_CmdInitTypeDef  sdmmc_cmdinit;
 2034              		.loc 1 751 1 is_stmt 0 view .LVU593
 2035 0000 30B5     		push	{r4, r5, lr}
 2036              	.LCFI35:
 2037              		.cfi_def_cfa_offset 12
 2038              		.cfi_offset 4, -12
 2039              		.cfi_offset 5, -8
 2040              		.cfi_offset 14, -4
 2041 0002 87B0     		sub	sp, sp, #28
 2042              	.LCFI36:
 2043              		.cfi_def_cfa_offset 40
 2044 0004 0546     		mov	r5, r0
ARM GAS  /tmp/ccDCAHOp.s 			page 71


 752:Drivers/STM32F4xx_HAL_Driver/Src/stm32f4xx_ll_sdmmc.c ****   uint32_t errorstate = SDMMC_ERROR_NONE;
 2045              		.loc 1 752 3 is_stmt 1 view .LVU594
 753:Drivers/STM32F4xx_HAL_Driver/Src/stm32f4xx_ll_sdmmc.c ****   
 2046              		.loc 1 753 3 view .LVU595
 2047              	.LVL189:
 756:Drivers/STM32F4xx_HAL_Driver/Src/stm32f4xx_ll_sdmmc.c ****   sdmmc_cmdinit.CmdIndex         = SDMMC_CMD_ERASE;
 2048              		.loc 1 756 3 view .LVU596
 756:Drivers/STM32F4xx_HAL_Driver/Src/stm32f4xx_ll_sdmmc.c ****   sdmmc_cmdinit.CmdIndex         = SDMMC_CMD_ERASE;
 2049              		.loc 1 756 34 is_stmt 0 view .LVU597
 2050 0006 0023     		movs	r3, #0
 2051 0008 0193     		str	r3, [sp, #4]
 757:Drivers/STM32F4xx_HAL_Driver/Src/stm32f4xx_ll_sdmmc.c ****   sdmmc_cmdinit.Response         = SDIO_RESPONSE_SHORT;
 2052              		.loc 1 757 3 is_stmt 1 view .LVU598
 757:Drivers/STM32F4xx_HAL_Driver/Src/stm32f4xx_ll_sdmmc.c ****   sdmmc_cmdinit.Response         = SDIO_RESPONSE_SHORT;
 2053              		.loc 1 757 34 is_stmt 0 view .LVU599
 2054 000a 2624     		movs	r4, #38
 2055 000c 0294     		str	r4, [sp, #8]
 758:Drivers/STM32F4xx_HAL_Driver/Src/stm32f4xx_ll_sdmmc.c ****   sdmmc_cmdinit.WaitForInterrupt = SDIO_WAIT_NO;
 2056              		.loc 1 758 3 is_stmt 1 view .LVU600
 758:Drivers/STM32F4xx_HAL_Driver/Src/stm32f4xx_ll_sdmmc.c ****   sdmmc_cmdinit.WaitForInterrupt = SDIO_WAIT_NO;
 2057              		.loc 1 758 34 is_stmt 0 view .LVU601
 2058 000e 4022     		movs	r2, #64
 2059 0010 0392     		str	r2, [sp, #12]
 759:Drivers/STM32F4xx_HAL_Driver/Src/stm32f4xx_ll_sdmmc.c ****   sdmmc_cmdinit.CPSM             = SDIO_CPSM_ENABLE;
 2060              		.loc 1 759 3 is_stmt 1 view .LVU602
 759:Drivers/STM32F4xx_HAL_Driver/Src/stm32f4xx_ll_sdmmc.c ****   sdmmc_cmdinit.CPSM             = SDIO_CPSM_ENABLE;
 2061              		.loc 1 759 34 is_stmt 0 view .LVU603
 2062 0012 0493     		str	r3, [sp, #16]
 760:Drivers/STM32F4xx_HAL_Driver/Src/stm32f4xx_ll_sdmmc.c ****   SDIO_SendCommand(SDIOx, &sdmmc_cmdinit);
 2063              		.loc 1 760 3 is_stmt 1 view .LVU604
 760:Drivers/STM32F4xx_HAL_Driver/Src/stm32f4xx_ll_sdmmc.c ****   SDIO_SendCommand(SDIOx, &sdmmc_cmdinit);
 2064              		.loc 1 760 34 is_stmt 0 view .LVU605
 2065 0014 4FF48063 		mov	r3, #1024
 2066 0018 0593     		str	r3, [sp, #20]
 761:Drivers/STM32F4xx_HAL_Driver/Src/stm32f4xx_ll_sdmmc.c ****   
 2067              		.loc 1 761 3 is_stmt 1 view .LVU606
 2068 001a 01A9     		add	r1, sp, #4
 2069 001c FFF7FEFF 		bl	SDIO_SendCommand
 2070              	.LVL190:
 764:Drivers/STM32F4xx_HAL_Driver/Src/stm32f4xx_ll_sdmmc.c **** 
 2071              		.loc 1 764 3 view .LVU607
 764:Drivers/STM32F4xx_HAL_Driver/Src/stm32f4xx_ll_sdmmc.c **** 
 2072              		.loc 1 764 16 is_stmt 0 view .LVU608
 2073 0020 4FF21862 		movw	r2, #63000
 2074 0024 2146     		mov	r1, r4
 2075 0026 2846     		mov	r0, r5
 2076 0028 FFF7FEFF 		bl	SDMMC_GetCmdResp1
 2077              	.LVL191:
 766:Drivers/STM32F4xx_HAL_Driver/Src/stm32f4xx_ll_sdmmc.c **** }
 2078              		.loc 1 766 3 is_stmt 1 view .LVU609
 767:Drivers/STM32F4xx_HAL_Driver/Src/stm32f4xx_ll_sdmmc.c **** 
 2079              		.loc 1 767 1 is_stmt 0 view .LVU610
 2080 002c 07B0     		add	sp, sp, #28
 2081              	.LCFI37:
 2082              		.cfi_def_cfa_offset 12
 2083              		@ sp needed
 2084 002e 30BD     		pop	{r4, r5, pc}
ARM GAS  /tmp/ccDCAHOp.s 			page 72


 767:Drivers/STM32F4xx_HAL_Driver/Src/stm32f4xx_ll_sdmmc.c **** 
 2085              		.loc 1 767 1 view .LVU611
 2086              		.cfi_endproc
 2087              	.LFE148:
 2089              		.section	.text.SDMMC_CmdStopTransfer,"ax",%progbits
 2090              		.align	1
 2091              		.global	SDMMC_CmdStopTransfer
 2092              		.syntax unified
 2093              		.thumb
 2094              		.thumb_func
 2095              		.fpu fpv4-sp-d16
 2097              	SDMMC_CmdStopTransfer:
 2098              	.LVL192:
 2099              	.LFB149:
 775:Drivers/STM32F4xx_HAL_Driver/Src/stm32f4xx_ll_sdmmc.c ****   SDIO_CmdInitTypeDef  sdmmc_cmdinit;
 2100              		.loc 1 775 1 is_stmt 1 view -0
 2101              		.cfi_startproc
 2102              		@ args = 0, pretend = 0, frame = 24
 2103              		@ frame_needed = 0, uses_anonymous_args = 0
 775:Drivers/STM32F4xx_HAL_Driver/Src/stm32f4xx_ll_sdmmc.c ****   SDIO_CmdInitTypeDef  sdmmc_cmdinit;
 2104              		.loc 1 775 1 is_stmt 0 view .LVU613
 2105 0000 30B5     		push	{r4, r5, lr}
 2106              	.LCFI38:
 2107              		.cfi_def_cfa_offset 12
 2108              		.cfi_offset 4, -12
 2109              		.cfi_offset 5, -8
 2110              		.cfi_offset 14, -4
 2111 0002 87B0     		sub	sp, sp, #28
 2112              	.LCFI39:
 2113              		.cfi_def_cfa_offset 40
 2114 0004 0546     		mov	r5, r0
 776:Drivers/STM32F4xx_HAL_Driver/Src/stm32f4xx_ll_sdmmc.c ****   uint32_t errorstate = SDMMC_ERROR_NONE;
 2115              		.loc 1 776 3 is_stmt 1 view .LVU614
 777:Drivers/STM32F4xx_HAL_Driver/Src/stm32f4xx_ll_sdmmc.c ****   
 2116              		.loc 1 777 3 view .LVU615
 2117              	.LVL193:
 780:Drivers/STM32F4xx_HAL_Driver/Src/stm32f4xx_ll_sdmmc.c ****   sdmmc_cmdinit.CmdIndex         = SDMMC_CMD_STOP_TRANSMISSION;
 2118              		.loc 1 780 3 view .LVU616
 780:Drivers/STM32F4xx_HAL_Driver/Src/stm32f4xx_ll_sdmmc.c ****   sdmmc_cmdinit.CmdIndex         = SDMMC_CMD_STOP_TRANSMISSION;
 2119              		.loc 1 780 34 is_stmt 0 view .LVU617
 2120 0006 0023     		movs	r3, #0
 2121 0008 0193     		str	r3, [sp, #4]
 781:Drivers/STM32F4xx_HAL_Driver/Src/stm32f4xx_ll_sdmmc.c ****   sdmmc_cmdinit.Response         = SDIO_RESPONSE_SHORT;
 2122              		.loc 1 781 3 is_stmt 1 view .LVU618
 781:Drivers/STM32F4xx_HAL_Driver/Src/stm32f4xx_ll_sdmmc.c ****   sdmmc_cmdinit.Response         = SDIO_RESPONSE_SHORT;
 2123              		.loc 1 781 34 is_stmt 0 view .LVU619
 2124 000a 0C24     		movs	r4, #12
 2125 000c 0294     		str	r4, [sp, #8]
 782:Drivers/STM32F4xx_HAL_Driver/Src/stm32f4xx_ll_sdmmc.c ****   sdmmc_cmdinit.WaitForInterrupt = SDIO_WAIT_NO;
 2126              		.loc 1 782 3 is_stmt 1 view .LVU620
 782:Drivers/STM32F4xx_HAL_Driver/Src/stm32f4xx_ll_sdmmc.c ****   sdmmc_cmdinit.WaitForInterrupt = SDIO_WAIT_NO;
 2127              		.loc 1 782 34 is_stmt 0 view .LVU621
 2128 000e 4022     		movs	r2, #64
 2129 0010 0392     		str	r2, [sp, #12]
 783:Drivers/STM32F4xx_HAL_Driver/Src/stm32f4xx_ll_sdmmc.c ****   sdmmc_cmdinit.CPSM             = SDIO_CPSM_ENABLE;
 2130              		.loc 1 783 3 is_stmt 1 view .LVU622
 783:Drivers/STM32F4xx_HAL_Driver/Src/stm32f4xx_ll_sdmmc.c ****   sdmmc_cmdinit.CPSM             = SDIO_CPSM_ENABLE;
ARM GAS  /tmp/ccDCAHOp.s 			page 73


 2131              		.loc 1 783 34 is_stmt 0 view .LVU623
 2132 0012 0493     		str	r3, [sp, #16]
 784:Drivers/STM32F4xx_HAL_Driver/Src/stm32f4xx_ll_sdmmc.c ****   SDIO_SendCommand(SDIOx, &sdmmc_cmdinit);
 2133              		.loc 1 784 3 is_stmt 1 view .LVU624
 784:Drivers/STM32F4xx_HAL_Driver/Src/stm32f4xx_ll_sdmmc.c ****   SDIO_SendCommand(SDIOx, &sdmmc_cmdinit);
 2134              		.loc 1 784 34 is_stmt 0 view .LVU625
 2135 0014 4FF48063 		mov	r3, #1024
 2136 0018 0593     		str	r3, [sp, #20]
 785:Drivers/STM32F4xx_HAL_Driver/Src/stm32f4xx_ll_sdmmc.c ****   
 2137              		.loc 1 785 3 is_stmt 1 view .LVU626
 2138 001a 01A9     		add	r1, sp, #4
 2139 001c FFF7FEFF 		bl	SDIO_SendCommand
 2140              	.LVL194:
 788:Drivers/STM32F4xx_HAL_Driver/Src/stm32f4xx_ll_sdmmc.c **** 
 2141              		.loc 1 788 3 view .LVU627
 788:Drivers/STM32F4xx_HAL_Driver/Src/stm32f4xx_ll_sdmmc.c **** 
 2142              		.loc 1 788 16 is_stmt 0 view .LVU628
 2143 0020 034A     		ldr	r2, .L118
 2144 0022 2146     		mov	r1, r4
 2145 0024 2846     		mov	r0, r5
 2146 0026 FFF7FEFF 		bl	SDMMC_GetCmdResp1
 2147              	.LVL195:
 790:Drivers/STM32F4xx_HAL_Driver/Src/stm32f4xx_ll_sdmmc.c **** }
 2148              		.loc 1 790 3 is_stmt 1 view .LVU629
 791:Drivers/STM32F4xx_HAL_Driver/Src/stm32f4xx_ll_sdmmc.c **** 
 2149              		.loc 1 791 1 is_stmt 0 view .LVU630
 2150 002a 07B0     		add	sp, sp, #28
 2151              	.LCFI40:
 2152              		.cfi_def_cfa_offset 12
 2153              		@ sp needed
 2154 002c 30BD     		pop	{r4, r5, pc}
 2155              	.LVL196:
 2156              	.L119:
 791:Drivers/STM32F4xx_HAL_Driver/Src/stm32f4xx_ll_sdmmc.c **** 
 2157              		.loc 1 791 1 view .LVU631
 2158 002e 00BF     		.align	2
 2159              	.L118:
 2160 0030 00E1F505 		.word	100000000
 2161              		.cfi_endproc
 2162              	.LFE149:
 2164              		.section	.text.SDMMC_CmdSelDesel,"ax",%progbits
 2165              		.align	1
 2166              		.global	SDMMC_CmdSelDesel
 2167              		.syntax unified
 2168              		.thumb
 2169              		.thumb_func
 2170              		.fpu fpv4-sp-d16
 2172              	SDMMC_CmdSelDesel:
 2173              	.LVL197:
 2174              	.LFB150:
 800:Drivers/STM32F4xx_HAL_Driver/Src/stm32f4xx_ll_sdmmc.c ****   SDIO_CmdInitTypeDef  sdmmc_cmdinit;
 2175              		.loc 1 800 1 is_stmt 1 view -0
 2176              		.cfi_startproc
 2177              		@ args = 0, pretend = 0, frame = 24
 2178              		@ frame_needed = 0, uses_anonymous_args = 0
 800:Drivers/STM32F4xx_HAL_Driver/Src/stm32f4xx_ll_sdmmc.c ****   SDIO_CmdInitTypeDef  sdmmc_cmdinit;
 2179              		.loc 1 800 1 is_stmt 0 view .LVU633
ARM GAS  /tmp/ccDCAHOp.s 			page 74


 2180 0000 30B5     		push	{r4, r5, lr}
 2181              	.LCFI41:
 2182              		.cfi_def_cfa_offset 12
 2183              		.cfi_offset 4, -12
 2184              		.cfi_offset 5, -8
 2185              		.cfi_offset 14, -4
 2186 0002 87B0     		sub	sp, sp, #28
 2187              	.LCFI42:
 2188              		.cfi_def_cfa_offset 40
 2189 0004 0546     		mov	r5, r0
 801:Drivers/STM32F4xx_HAL_Driver/Src/stm32f4xx_ll_sdmmc.c ****   uint32_t errorstate = SDMMC_ERROR_NONE;
 2190              		.loc 1 801 3 is_stmt 1 view .LVU634
 802:Drivers/STM32F4xx_HAL_Driver/Src/stm32f4xx_ll_sdmmc.c ****   
 2191              		.loc 1 802 3 view .LVU635
 2192              	.LVL198:
 805:Drivers/STM32F4xx_HAL_Driver/Src/stm32f4xx_ll_sdmmc.c ****   sdmmc_cmdinit.CmdIndex         = SDMMC_CMD_SEL_DESEL_CARD;
 2193              		.loc 1 805 3 view .LVU636
 805:Drivers/STM32F4xx_HAL_Driver/Src/stm32f4xx_ll_sdmmc.c ****   sdmmc_cmdinit.CmdIndex         = SDMMC_CMD_SEL_DESEL_CARD;
 2194              		.loc 1 805 34 is_stmt 0 view .LVU637
 2195 0006 0192     		str	r2, [sp, #4]
 806:Drivers/STM32F4xx_HAL_Driver/Src/stm32f4xx_ll_sdmmc.c ****   sdmmc_cmdinit.Response         = SDIO_RESPONSE_SHORT;
 2196              		.loc 1 806 3 is_stmt 1 view .LVU638
 806:Drivers/STM32F4xx_HAL_Driver/Src/stm32f4xx_ll_sdmmc.c ****   sdmmc_cmdinit.Response         = SDIO_RESPONSE_SHORT;
 2197              		.loc 1 806 34 is_stmt 0 view .LVU639
 2198 0008 0724     		movs	r4, #7
 2199 000a 0294     		str	r4, [sp, #8]
 807:Drivers/STM32F4xx_HAL_Driver/Src/stm32f4xx_ll_sdmmc.c ****   sdmmc_cmdinit.WaitForInterrupt = SDIO_WAIT_NO;
 2200              		.loc 1 807 3 is_stmt 1 view .LVU640
 807:Drivers/STM32F4xx_HAL_Driver/Src/stm32f4xx_ll_sdmmc.c ****   sdmmc_cmdinit.WaitForInterrupt = SDIO_WAIT_NO;
 2201              		.loc 1 807 34 is_stmt 0 view .LVU641
 2202 000c 4023     		movs	r3, #64
 2203 000e 0393     		str	r3, [sp, #12]
 808:Drivers/STM32F4xx_HAL_Driver/Src/stm32f4xx_ll_sdmmc.c ****   sdmmc_cmdinit.CPSM             = SDIO_CPSM_ENABLE;
 2204              		.loc 1 808 3 is_stmt 1 view .LVU642
 808:Drivers/STM32F4xx_HAL_Driver/Src/stm32f4xx_ll_sdmmc.c ****   sdmmc_cmdinit.CPSM             = SDIO_CPSM_ENABLE;
 2205              		.loc 1 808 34 is_stmt 0 view .LVU643
 2206 0010 0023     		movs	r3, #0
 2207 0012 0493     		str	r3, [sp, #16]
 809:Drivers/STM32F4xx_HAL_Driver/Src/stm32f4xx_ll_sdmmc.c ****   SDIO_SendCommand(SDIOx, &sdmmc_cmdinit);
 2208              		.loc 1 809 3 is_stmt 1 view .LVU644
 809:Drivers/STM32F4xx_HAL_Driver/Src/stm32f4xx_ll_sdmmc.c ****   SDIO_SendCommand(SDIOx, &sdmmc_cmdinit);
 2209              		.loc 1 809 34 is_stmt 0 view .LVU645
 2210 0014 4FF48063 		mov	r3, #1024
 2211 0018 0593     		str	r3, [sp, #20]
 810:Drivers/STM32F4xx_HAL_Driver/Src/stm32f4xx_ll_sdmmc.c ****   
 2212              		.loc 1 810 3 is_stmt 1 view .LVU646
 2213 001a 01A9     		add	r1, sp, #4
 2214 001c FFF7FEFF 		bl	SDIO_SendCommand
 2215              	.LVL199:
 813:Drivers/STM32F4xx_HAL_Driver/Src/stm32f4xx_ll_sdmmc.c **** 
 2216              		.loc 1 813 3 view .LVU647
 813:Drivers/STM32F4xx_HAL_Driver/Src/stm32f4xx_ll_sdmmc.c **** 
 2217              		.loc 1 813 16 is_stmt 0 view .LVU648
 2218 0020 41F28832 		movw	r2, #5000
 2219 0024 2146     		mov	r1, r4
 2220 0026 2846     		mov	r0, r5
 2221 0028 FFF7FEFF 		bl	SDMMC_GetCmdResp1
ARM GAS  /tmp/ccDCAHOp.s 			page 75


 2222              	.LVL200:
 815:Drivers/STM32F4xx_HAL_Driver/Src/stm32f4xx_ll_sdmmc.c **** }
 2223              		.loc 1 815 3 is_stmt 1 view .LVU649
 816:Drivers/STM32F4xx_HAL_Driver/Src/stm32f4xx_ll_sdmmc.c **** 
 2224              		.loc 1 816 1 is_stmt 0 view .LVU650
 2225 002c 07B0     		add	sp, sp, #28
 2226              	.LCFI43:
 2227              		.cfi_def_cfa_offset 12
 2228              		@ sp needed
 2229 002e 30BD     		pop	{r4, r5, pc}
 816:Drivers/STM32F4xx_HAL_Driver/Src/stm32f4xx_ll_sdmmc.c **** 
 2230              		.loc 1 816 1 view .LVU651
 2231              		.cfi_endproc
 2232              	.LFE150:
 2234              		.section	.text.SDMMC_CmdGoIdleState,"ax",%progbits
 2235              		.align	1
 2236              		.global	SDMMC_CmdGoIdleState
 2237              		.syntax unified
 2238              		.thumb
 2239              		.thumb_func
 2240              		.fpu fpv4-sp-d16
 2242              	SDMMC_CmdGoIdleState:
 2243              	.LVL201:
 2244              	.LFB151:
 824:Drivers/STM32F4xx_HAL_Driver/Src/stm32f4xx_ll_sdmmc.c ****   SDIO_CmdInitTypeDef  sdmmc_cmdinit;
 2245              		.loc 1 824 1 is_stmt 1 view -0
 2246              		.cfi_startproc
 2247              		@ args = 0, pretend = 0, frame = 24
 2248              		@ frame_needed = 0, uses_anonymous_args = 0
 824:Drivers/STM32F4xx_HAL_Driver/Src/stm32f4xx_ll_sdmmc.c ****   SDIO_CmdInitTypeDef  sdmmc_cmdinit;
 2249              		.loc 1 824 1 is_stmt 0 view .LVU653
 2250 0000 10B5     		push	{r4, lr}
 2251              	.LCFI44:
 2252              		.cfi_def_cfa_offset 8
 2253              		.cfi_offset 4, -8
 2254              		.cfi_offset 14, -4
 2255 0002 86B0     		sub	sp, sp, #24
 2256              	.LCFI45:
 2257              		.cfi_def_cfa_offset 32
 2258 0004 0446     		mov	r4, r0
 825:Drivers/STM32F4xx_HAL_Driver/Src/stm32f4xx_ll_sdmmc.c ****   uint32_t errorstate = SDMMC_ERROR_NONE;
 2259              		.loc 1 825 3 is_stmt 1 view .LVU654
 826:Drivers/STM32F4xx_HAL_Driver/Src/stm32f4xx_ll_sdmmc.c ****   
 2260              		.loc 1 826 3 view .LVU655
 2261              	.LVL202:
 828:Drivers/STM32F4xx_HAL_Driver/Src/stm32f4xx_ll_sdmmc.c ****   sdmmc_cmdinit.CmdIndex         = SDMMC_CMD_GO_IDLE_STATE;
 2262              		.loc 1 828 3 view .LVU656
 828:Drivers/STM32F4xx_HAL_Driver/Src/stm32f4xx_ll_sdmmc.c ****   sdmmc_cmdinit.CmdIndex         = SDMMC_CMD_GO_IDLE_STATE;
 2263              		.loc 1 828 34 is_stmt 0 view .LVU657
 2264 0006 0023     		movs	r3, #0
 2265 0008 0193     		str	r3, [sp, #4]
 829:Drivers/STM32F4xx_HAL_Driver/Src/stm32f4xx_ll_sdmmc.c ****   sdmmc_cmdinit.Response         = SDIO_RESPONSE_NO;
 2266              		.loc 1 829 3 is_stmt 1 view .LVU658
 829:Drivers/STM32F4xx_HAL_Driver/Src/stm32f4xx_ll_sdmmc.c ****   sdmmc_cmdinit.Response         = SDIO_RESPONSE_NO;
 2267              		.loc 1 829 34 is_stmt 0 view .LVU659
 2268 000a 0293     		str	r3, [sp, #8]
 830:Drivers/STM32F4xx_HAL_Driver/Src/stm32f4xx_ll_sdmmc.c ****   sdmmc_cmdinit.WaitForInterrupt = SDIO_WAIT_NO;
ARM GAS  /tmp/ccDCAHOp.s 			page 76


 2269              		.loc 1 830 3 is_stmt 1 view .LVU660
 830:Drivers/STM32F4xx_HAL_Driver/Src/stm32f4xx_ll_sdmmc.c ****   sdmmc_cmdinit.WaitForInterrupt = SDIO_WAIT_NO;
 2270              		.loc 1 830 34 is_stmt 0 view .LVU661
 2271 000c 0393     		str	r3, [sp, #12]
 831:Drivers/STM32F4xx_HAL_Driver/Src/stm32f4xx_ll_sdmmc.c ****   sdmmc_cmdinit.CPSM             = SDIO_CPSM_ENABLE;
 2272              		.loc 1 831 3 is_stmt 1 view .LVU662
 831:Drivers/STM32F4xx_HAL_Driver/Src/stm32f4xx_ll_sdmmc.c ****   sdmmc_cmdinit.CPSM             = SDIO_CPSM_ENABLE;
 2273              		.loc 1 831 34 is_stmt 0 view .LVU663
 2274 000e 0493     		str	r3, [sp, #16]
 832:Drivers/STM32F4xx_HAL_Driver/Src/stm32f4xx_ll_sdmmc.c ****   SDIO_SendCommand(SDIOx, &sdmmc_cmdinit);
 2275              		.loc 1 832 3 is_stmt 1 view .LVU664
 832:Drivers/STM32F4xx_HAL_Driver/Src/stm32f4xx_ll_sdmmc.c ****   SDIO_SendCommand(SDIOx, &sdmmc_cmdinit);
 2276              		.loc 1 832 34 is_stmt 0 view .LVU665
 2277 0010 4FF48063 		mov	r3, #1024
 2278 0014 0593     		str	r3, [sp, #20]
 833:Drivers/STM32F4xx_HAL_Driver/Src/stm32f4xx_ll_sdmmc.c ****   
 2279              		.loc 1 833 3 is_stmt 1 view .LVU666
 2280 0016 01A9     		add	r1, sp, #4
 2281 0018 FFF7FEFF 		bl	SDIO_SendCommand
 2282              	.LVL203:
 836:Drivers/STM32F4xx_HAL_Driver/Src/stm32f4xx_ll_sdmmc.c **** 
 2283              		.loc 1 836 3 view .LVU667
 836:Drivers/STM32F4xx_HAL_Driver/Src/stm32f4xx_ll_sdmmc.c **** 
 2284              		.loc 1 836 16 is_stmt 0 view .LVU668
 2285 001c 2046     		mov	r0, r4
 2286 001e FFF7FEFF 		bl	SDMMC_GetCmdError
 2287              	.LVL204:
 838:Drivers/STM32F4xx_HAL_Driver/Src/stm32f4xx_ll_sdmmc.c **** }
 2288              		.loc 1 838 3 is_stmt 1 view .LVU669
 839:Drivers/STM32F4xx_HAL_Driver/Src/stm32f4xx_ll_sdmmc.c **** 
 2289              		.loc 1 839 1 is_stmt 0 view .LVU670
 2290 0022 06B0     		add	sp, sp, #24
 2291              	.LCFI46:
 2292              		.cfi_def_cfa_offset 8
 2293              		@ sp needed
 2294 0024 10BD     		pop	{r4, pc}
 839:Drivers/STM32F4xx_HAL_Driver/Src/stm32f4xx_ll_sdmmc.c **** 
 2295              		.loc 1 839 1 view .LVU671
 2296              		.cfi_endproc
 2297              	.LFE151:
 2299              		.section	.text.SDMMC_CmdOperCond,"ax",%progbits
 2300              		.align	1
 2301              		.global	SDMMC_CmdOperCond
 2302              		.syntax unified
 2303              		.thumb
 2304              		.thumb_func
 2305              		.fpu fpv4-sp-d16
 2307              	SDMMC_CmdOperCond:
 2308              	.LVL205:
 2309              	.LFB152:
 847:Drivers/STM32F4xx_HAL_Driver/Src/stm32f4xx_ll_sdmmc.c ****   SDIO_CmdInitTypeDef  sdmmc_cmdinit;
 2310              		.loc 1 847 1 is_stmt 1 view -0
 2311              		.cfi_startproc
 2312              		@ args = 0, pretend = 0, frame = 24
 2313              		@ frame_needed = 0, uses_anonymous_args = 0
 847:Drivers/STM32F4xx_HAL_Driver/Src/stm32f4xx_ll_sdmmc.c ****   SDIO_CmdInitTypeDef  sdmmc_cmdinit;
 2314              		.loc 1 847 1 is_stmt 0 view .LVU673
ARM GAS  /tmp/ccDCAHOp.s 			page 77


 2315 0000 10B5     		push	{r4, lr}
 2316              	.LCFI47:
 2317              		.cfi_def_cfa_offset 8
 2318              		.cfi_offset 4, -8
 2319              		.cfi_offset 14, -4
 2320 0002 86B0     		sub	sp, sp, #24
 2321              	.LCFI48:
 2322              		.cfi_def_cfa_offset 32
 2323 0004 0446     		mov	r4, r0
 848:Drivers/STM32F4xx_HAL_Driver/Src/stm32f4xx_ll_sdmmc.c ****   uint32_t errorstate = SDMMC_ERROR_NONE;
 2324              		.loc 1 848 3 is_stmt 1 view .LVU674
 849:Drivers/STM32F4xx_HAL_Driver/Src/stm32f4xx_ll_sdmmc.c ****   
 2325              		.loc 1 849 3 view .LVU675
 2326              	.LVL206:
 856:Drivers/STM32F4xx_HAL_Driver/Src/stm32f4xx_ll_sdmmc.c ****   sdmmc_cmdinit.CmdIndex         = SDMMC_CMD_HS_SEND_EXT_CSD;
 2327              		.loc 1 856 3 view .LVU676
 856:Drivers/STM32F4xx_HAL_Driver/Src/stm32f4xx_ll_sdmmc.c ****   sdmmc_cmdinit.CmdIndex         = SDMMC_CMD_HS_SEND_EXT_CSD;
 2328              		.loc 1 856 34 is_stmt 0 view .LVU677
 2329 0006 4FF4D573 		mov	r3, #426
 2330 000a 0193     		str	r3, [sp, #4]
 857:Drivers/STM32F4xx_HAL_Driver/Src/stm32f4xx_ll_sdmmc.c ****   sdmmc_cmdinit.Response         = SDIO_RESPONSE_SHORT;
 2331              		.loc 1 857 3 is_stmt 1 view .LVU678
 857:Drivers/STM32F4xx_HAL_Driver/Src/stm32f4xx_ll_sdmmc.c ****   sdmmc_cmdinit.Response         = SDIO_RESPONSE_SHORT;
 2332              		.loc 1 857 34 is_stmt 0 view .LVU679
 2333 000c 0823     		movs	r3, #8
 2334 000e 0293     		str	r3, [sp, #8]
 858:Drivers/STM32F4xx_HAL_Driver/Src/stm32f4xx_ll_sdmmc.c ****   sdmmc_cmdinit.WaitForInterrupt = SDIO_WAIT_NO;
 2335              		.loc 1 858 3 is_stmt 1 view .LVU680
 858:Drivers/STM32F4xx_HAL_Driver/Src/stm32f4xx_ll_sdmmc.c ****   sdmmc_cmdinit.WaitForInterrupt = SDIO_WAIT_NO;
 2336              		.loc 1 858 34 is_stmt 0 view .LVU681
 2337 0010 4023     		movs	r3, #64
 2338 0012 0393     		str	r3, [sp, #12]
 859:Drivers/STM32F4xx_HAL_Driver/Src/stm32f4xx_ll_sdmmc.c ****   sdmmc_cmdinit.CPSM             = SDIO_CPSM_ENABLE;
 2339              		.loc 1 859 3 is_stmt 1 view .LVU682
 859:Drivers/STM32F4xx_HAL_Driver/Src/stm32f4xx_ll_sdmmc.c ****   sdmmc_cmdinit.CPSM             = SDIO_CPSM_ENABLE;
 2340              		.loc 1 859 34 is_stmt 0 view .LVU683
 2341 0014 0023     		movs	r3, #0
 2342 0016 0493     		str	r3, [sp, #16]
 860:Drivers/STM32F4xx_HAL_Driver/Src/stm32f4xx_ll_sdmmc.c ****   SDIO_SendCommand(SDIOx, &sdmmc_cmdinit);
 2343              		.loc 1 860 3 is_stmt 1 view .LVU684
 860:Drivers/STM32F4xx_HAL_Driver/Src/stm32f4xx_ll_sdmmc.c ****   SDIO_SendCommand(SDIOx, &sdmmc_cmdinit);
 2344              		.loc 1 860 34 is_stmt 0 view .LVU685
 2345 0018 4FF48063 		mov	r3, #1024
 2346 001c 0593     		str	r3, [sp, #20]
 861:Drivers/STM32F4xx_HAL_Driver/Src/stm32f4xx_ll_sdmmc.c ****   
 2347              		.loc 1 861 3 is_stmt 1 view .LVU686
 2348 001e 01A9     		add	r1, sp, #4
 2349 0020 FFF7FEFF 		bl	SDIO_SendCommand
 2350              	.LVL207:
 864:Drivers/STM32F4xx_HAL_Driver/Src/stm32f4xx_ll_sdmmc.c **** 
 2351              		.loc 1 864 3 view .LVU687
 864:Drivers/STM32F4xx_HAL_Driver/Src/stm32f4xx_ll_sdmmc.c **** 
 2352              		.loc 1 864 16 is_stmt 0 view .LVU688
 2353 0024 2046     		mov	r0, r4
 2354 0026 FFF7FEFF 		bl	SDMMC_GetCmdResp7
 2355              	.LVL208:
 866:Drivers/STM32F4xx_HAL_Driver/Src/stm32f4xx_ll_sdmmc.c **** }
ARM GAS  /tmp/ccDCAHOp.s 			page 78


 2356              		.loc 1 866 3 is_stmt 1 view .LVU689
 867:Drivers/STM32F4xx_HAL_Driver/Src/stm32f4xx_ll_sdmmc.c **** 
 2357              		.loc 1 867 1 is_stmt 0 view .LVU690
 2358 002a 06B0     		add	sp, sp, #24
 2359              	.LCFI49:
 2360              		.cfi_def_cfa_offset 8
 2361              		@ sp needed
 2362 002c 10BD     		pop	{r4, pc}
 867:Drivers/STM32F4xx_HAL_Driver/Src/stm32f4xx_ll_sdmmc.c **** 
 2363              		.loc 1 867 1 view .LVU691
 2364              		.cfi_endproc
 2365              	.LFE152:
 2367              		.section	.text.SDMMC_CmdAppCommand,"ax",%progbits
 2368              		.align	1
 2369              		.global	SDMMC_CmdAppCommand
 2370              		.syntax unified
 2371              		.thumb
 2372              		.thumb_func
 2373              		.fpu fpv4-sp-d16
 2375              	SDMMC_CmdAppCommand:
 2376              	.LVL209:
 2377              	.LFB153:
 877:Drivers/STM32F4xx_HAL_Driver/Src/stm32f4xx_ll_sdmmc.c ****   SDIO_CmdInitTypeDef  sdmmc_cmdinit;
 2378              		.loc 1 877 1 is_stmt 1 view -0
 2379              		.cfi_startproc
 2380              		@ args = 0, pretend = 0, frame = 24
 2381              		@ frame_needed = 0, uses_anonymous_args = 0
 877:Drivers/STM32F4xx_HAL_Driver/Src/stm32f4xx_ll_sdmmc.c ****   SDIO_CmdInitTypeDef  sdmmc_cmdinit;
 2382              		.loc 1 877 1 is_stmt 0 view .LVU693
 2383 0000 30B5     		push	{r4, r5, lr}
 2384              	.LCFI50:
 2385              		.cfi_def_cfa_offset 12
 2386              		.cfi_offset 4, -12
 2387              		.cfi_offset 5, -8
 2388              		.cfi_offset 14, -4
 2389 0002 87B0     		sub	sp, sp, #28
 2390              	.LCFI51:
 2391              		.cfi_def_cfa_offset 40
 2392 0004 0546     		mov	r5, r0
 878:Drivers/STM32F4xx_HAL_Driver/Src/stm32f4xx_ll_sdmmc.c ****   uint32_t errorstate = SDMMC_ERROR_NONE;
 2393              		.loc 1 878 3 is_stmt 1 view .LVU694
 879:Drivers/STM32F4xx_HAL_Driver/Src/stm32f4xx_ll_sdmmc.c ****   
 2394              		.loc 1 879 3 view .LVU695
 2395              	.LVL210:
 881:Drivers/STM32F4xx_HAL_Driver/Src/stm32f4xx_ll_sdmmc.c ****   sdmmc_cmdinit.CmdIndex         = SDMMC_CMD_APP_CMD;
 2396              		.loc 1 881 3 view .LVU696
 881:Drivers/STM32F4xx_HAL_Driver/Src/stm32f4xx_ll_sdmmc.c ****   sdmmc_cmdinit.CmdIndex         = SDMMC_CMD_APP_CMD;
 2397              		.loc 1 881 34 is_stmt 0 view .LVU697
 2398 0006 0191     		str	r1, [sp, #4]
 882:Drivers/STM32F4xx_HAL_Driver/Src/stm32f4xx_ll_sdmmc.c ****   sdmmc_cmdinit.Response         = SDIO_RESPONSE_SHORT;
 2399              		.loc 1 882 3 is_stmt 1 view .LVU698
 882:Drivers/STM32F4xx_HAL_Driver/Src/stm32f4xx_ll_sdmmc.c ****   sdmmc_cmdinit.Response         = SDIO_RESPONSE_SHORT;
 2400              		.loc 1 882 34 is_stmt 0 view .LVU699
 2401 0008 3724     		movs	r4, #55
 2402 000a 0294     		str	r4, [sp, #8]
 883:Drivers/STM32F4xx_HAL_Driver/Src/stm32f4xx_ll_sdmmc.c ****   sdmmc_cmdinit.WaitForInterrupt = SDIO_WAIT_NO;
 2403              		.loc 1 883 3 is_stmt 1 view .LVU700
ARM GAS  /tmp/ccDCAHOp.s 			page 79


 883:Drivers/STM32F4xx_HAL_Driver/Src/stm32f4xx_ll_sdmmc.c ****   sdmmc_cmdinit.WaitForInterrupt = SDIO_WAIT_NO;
 2404              		.loc 1 883 34 is_stmt 0 view .LVU701
 2405 000c 4023     		movs	r3, #64
 2406 000e 0393     		str	r3, [sp, #12]
 884:Drivers/STM32F4xx_HAL_Driver/Src/stm32f4xx_ll_sdmmc.c ****   sdmmc_cmdinit.CPSM             = SDIO_CPSM_ENABLE;
 2407              		.loc 1 884 3 is_stmt 1 view .LVU702
 884:Drivers/STM32F4xx_HAL_Driver/Src/stm32f4xx_ll_sdmmc.c ****   sdmmc_cmdinit.CPSM             = SDIO_CPSM_ENABLE;
 2408              		.loc 1 884 34 is_stmt 0 view .LVU703
 2409 0010 0023     		movs	r3, #0
 2410 0012 0493     		str	r3, [sp, #16]
 885:Drivers/STM32F4xx_HAL_Driver/Src/stm32f4xx_ll_sdmmc.c ****   SDIO_SendCommand(SDIOx, &sdmmc_cmdinit);
 2411              		.loc 1 885 3 is_stmt 1 view .LVU704
 885:Drivers/STM32F4xx_HAL_Driver/Src/stm32f4xx_ll_sdmmc.c ****   SDIO_SendCommand(SDIOx, &sdmmc_cmdinit);
 2412              		.loc 1 885 34 is_stmt 0 view .LVU705
 2413 0014 4FF48063 		mov	r3, #1024
 2414 0018 0593     		str	r3, [sp, #20]
 886:Drivers/STM32F4xx_HAL_Driver/Src/stm32f4xx_ll_sdmmc.c ****   
 2415              		.loc 1 886 3 is_stmt 1 view .LVU706
 2416 001a 01A9     		add	r1, sp, #4
 2417              	.LVL211:
 886:Drivers/STM32F4xx_HAL_Driver/Src/stm32f4xx_ll_sdmmc.c ****   
 2418              		.loc 1 886 3 is_stmt 0 view .LVU707
 2419 001c FFF7FEFF 		bl	SDIO_SendCommand
 2420              	.LVL212:
 892:Drivers/STM32F4xx_HAL_Driver/Src/stm32f4xx_ll_sdmmc.c **** 
 2421              		.loc 1 892 3 is_stmt 1 view .LVU708
 892:Drivers/STM32F4xx_HAL_Driver/Src/stm32f4xx_ll_sdmmc.c **** 
 2422              		.loc 1 892 16 is_stmt 0 view .LVU709
 2423 0020 41F28832 		movw	r2, #5000
 2424 0024 2146     		mov	r1, r4
 2425 0026 2846     		mov	r0, r5
 2426 0028 FFF7FEFF 		bl	SDMMC_GetCmdResp1
 2427              	.LVL213:
 894:Drivers/STM32F4xx_HAL_Driver/Src/stm32f4xx_ll_sdmmc.c **** }
 2428              		.loc 1 894 3 is_stmt 1 view .LVU710
 895:Drivers/STM32F4xx_HAL_Driver/Src/stm32f4xx_ll_sdmmc.c **** 
 2429              		.loc 1 895 1 is_stmt 0 view .LVU711
 2430 002c 07B0     		add	sp, sp, #28
 2431              	.LCFI52:
 2432              		.cfi_def_cfa_offset 12
 2433              		@ sp needed
 2434 002e 30BD     		pop	{r4, r5, pc}
 895:Drivers/STM32F4xx_HAL_Driver/Src/stm32f4xx_ll_sdmmc.c **** 
 2435              		.loc 1 895 1 view .LVU712
 2436              		.cfi_endproc
 2437              	.LFE153:
 2439              		.section	.text.SDMMC_CmdAppOperCommand,"ax",%progbits
 2440              		.align	1
 2441              		.global	SDMMC_CmdAppOperCommand
 2442              		.syntax unified
 2443              		.thumb
 2444              		.thumb_func
 2445              		.fpu fpv4-sp-d16
 2447              	SDMMC_CmdAppOperCommand:
 2448              	.LVL214:
 2449              	.LFB154:
 904:Drivers/STM32F4xx_HAL_Driver/Src/stm32f4xx_ll_sdmmc.c ****   SDIO_CmdInitTypeDef  sdmmc_cmdinit;
ARM GAS  /tmp/ccDCAHOp.s 			page 80


 2450              		.loc 1 904 1 is_stmt 1 view -0
 2451              		.cfi_startproc
 2452              		@ args = 0, pretend = 0, frame = 24
 2453              		@ frame_needed = 0, uses_anonymous_args = 0
 904:Drivers/STM32F4xx_HAL_Driver/Src/stm32f4xx_ll_sdmmc.c ****   SDIO_CmdInitTypeDef  sdmmc_cmdinit;
 2454              		.loc 1 904 1 is_stmt 0 view .LVU714
 2455 0000 10B5     		push	{r4, lr}
 2456              	.LCFI53:
 2457              		.cfi_def_cfa_offset 8
 2458              		.cfi_offset 4, -8
 2459              		.cfi_offset 14, -4
 2460 0002 86B0     		sub	sp, sp, #24
 2461              	.LCFI54:
 2462              		.cfi_def_cfa_offset 32
 2463 0004 0446     		mov	r4, r0
 905:Drivers/STM32F4xx_HAL_Driver/Src/stm32f4xx_ll_sdmmc.c ****   uint32_t errorstate = SDMMC_ERROR_NONE;
 2464              		.loc 1 905 3 is_stmt 1 view .LVU715
 906:Drivers/STM32F4xx_HAL_Driver/Src/stm32f4xx_ll_sdmmc.c ****   
 2465              		.loc 1 906 3 view .LVU716
 2466              	.LVL215:
 908:Drivers/STM32F4xx_HAL_Driver/Src/stm32f4xx_ll_sdmmc.c ****   sdmmc_cmdinit.CmdIndex         = SDMMC_CMD_SD_APP_OP_COND;
 2467              		.loc 1 908 3 view .LVU717
 908:Drivers/STM32F4xx_HAL_Driver/Src/stm32f4xx_ll_sdmmc.c ****   sdmmc_cmdinit.CmdIndex         = SDMMC_CMD_SD_APP_OP_COND;
 2468              		.loc 1 908 60 is_stmt 0 view .LVU718
 2469 0006 41F00041 		orr	r1, r1, #-2147483648
 2470              	.LVL216:
 908:Drivers/STM32F4xx_HAL_Driver/Src/stm32f4xx_ll_sdmmc.c ****   sdmmc_cmdinit.CmdIndex         = SDMMC_CMD_SD_APP_OP_COND;
 2471              		.loc 1 908 60 view .LVU719
 2472 000a 41F48011 		orr	r1, r1, #1048576
 908:Drivers/STM32F4xx_HAL_Driver/Src/stm32f4xx_ll_sdmmc.c ****   sdmmc_cmdinit.CmdIndex         = SDMMC_CMD_SD_APP_OP_COND;
 2473              		.loc 1 908 34 view .LVU720
 2474 000e 0191     		str	r1, [sp, #4]
 909:Drivers/STM32F4xx_HAL_Driver/Src/stm32f4xx_ll_sdmmc.c ****   sdmmc_cmdinit.Response         = SDIO_RESPONSE_SHORT;
 2475              		.loc 1 909 3 is_stmt 1 view .LVU721
 909:Drivers/STM32F4xx_HAL_Driver/Src/stm32f4xx_ll_sdmmc.c ****   sdmmc_cmdinit.Response         = SDIO_RESPONSE_SHORT;
 2476              		.loc 1 909 34 is_stmt 0 view .LVU722
 2477 0010 2923     		movs	r3, #41
 2478 0012 0293     		str	r3, [sp, #8]
 910:Drivers/STM32F4xx_HAL_Driver/Src/stm32f4xx_ll_sdmmc.c ****   sdmmc_cmdinit.WaitForInterrupt = SDIO_WAIT_NO;
 2479              		.loc 1 910 3 is_stmt 1 view .LVU723
 910:Drivers/STM32F4xx_HAL_Driver/Src/stm32f4xx_ll_sdmmc.c ****   sdmmc_cmdinit.WaitForInterrupt = SDIO_WAIT_NO;
 2480              		.loc 1 910 34 is_stmt 0 view .LVU724
 2481 0014 4023     		movs	r3, #64
 2482 0016 0393     		str	r3, [sp, #12]
 911:Drivers/STM32F4xx_HAL_Driver/Src/stm32f4xx_ll_sdmmc.c ****   sdmmc_cmdinit.CPSM             = SDIO_CPSM_ENABLE;
 2483              		.loc 1 911 3 is_stmt 1 view .LVU725
 911:Drivers/STM32F4xx_HAL_Driver/Src/stm32f4xx_ll_sdmmc.c ****   sdmmc_cmdinit.CPSM             = SDIO_CPSM_ENABLE;
 2484              		.loc 1 911 34 is_stmt 0 view .LVU726
 2485 0018 0023     		movs	r3, #0
 2486 001a 0493     		str	r3, [sp, #16]
 912:Drivers/STM32F4xx_HAL_Driver/Src/stm32f4xx_ll_sdmmc.c ****   SDIO_SendCommand(SDIOx, &sdmmc_cmdinit);
 2487              		.loc 1 912 3 is_stmt 1 view .LVU727
 912:Drivers/STM32F4xx_HAL_Driver/Src/stm32f4xx_ll_sdmmc.c ****   SDIO_SendCommand(SDIOx, &sdmmc_cmdinit);
 2488              		.loc 1 912 34 is_stmt 0 view .LVU728
 2489 001c 4FF48063 		mov	r3, #1024
 2490 0020 0593     		str	r3, [sp, #20]
 913:Drivers/STM32F4xx_HAL_Driver/Src/stm32f4xx_ll_sdmmc.c ****   
ARM GAS  /tmp/ccDCAHOp.s 			page 81


 2491              		.loc 1 913 3 is_stmt 1 view .LVU729
 2492 0022 01A9     		add	r1, sp, #4
 2493 0024 FFF7FEFF 		bl	SDIO_SendCommand
 2494              	.LVL217:
 916:Drivers/STM32F4xx_HAL_Driver/Src/stm32f4xx_ll_sdmmc.c **** 
 2495              		.loc 1 916 3 view .LVU730
 916:Drivers/STM32F4xx_HAL_Driver/Src/stm32f4xx_ll_sdmmc.c **** 
 2496              		.loc 1 916 16 is_stmt 0 view .LVU731
 2497 0028 2046     		mov	r0, r4
 2498 002a FFF7FEFF 		bl	SDMMC_GetCmdResp3
 2499              	.LVL218:
 918:Drivers/STM32F4xx_HAL_Driver/Src/stm32f4xx_ll_sdmmc.c **** }
 2500              		.loc 1 918 3 is_stmt 1 view .LVU732
 919:Drivers/STM32F4xx_HAL_Driver/Src/stm32f4xx_ll_sdmmc.c **** 
 2501              		.loc 1 919 1 is_stmt 0 view .LVU733
 2502 002e 06B0     		add	sp, sp, #24
 2503              	.LCFI55:
 2504              		.cfi_def_cfa_offset 8
 2505              		@ sp needed
 2506 0030 10BD     		pop	{r4, pc}
 919:Drivers/STM32F4xx_HAL_Driver/Src/stm32f4xx_ll_sdmmc.c **** 
 2507              		.loc 1 919 1 view .LVU734
 2508              		.cfi_endproc
 2509              	.LFE154:
 2511              		.section	.text.SDMMC_CmdBusWidth,"ax",%progbits
 2512              		.align	1
 2513              		.global	SDMMC_CmdBusWidth
 2514              		.syntax unified
 2515              		.thumb
 2516              		.thumb_func
 2517              		.fpu fpv4-sp-d16
 2519              	SDMMC_CmdBusWidth:
 2520              	.LVL219:
 2521              	.LFB155:
 927:Drivers/STM32F4xx_HAL_Driver/Src/stm32f4xx_ll_sdmmc.c ****   SDIO_CmdInitTypeDef  sdmmc_cmdinit;
 2522              		.loc 1 927 1 is_stmt 1 view -0
 2523              		.cfi_startproc
 2524              		@ args = 0, pretend = 0, frame = 24
 2525              		@ frame_needed = 0, uses_anonymous_args = 0
 927:Drivers/STM32F4xx_HAL_Driver/Src/stm32f4xx_ll_sdmmc.c ****   SDIO_CmdInitTypeDef  sdmmc_cmdinit;
 2526              		.loc 1 927 1 is_stmt 0 view .LVU736
 2527 0000 30B5     		push	{r4, r5, lr}
 2528              	.LCFI56:
 2529              		.cfi_def_cfa_offset 12
 2530              		.cfi_offset 4, -12
 2531              		.cfi_offset 5, -8
 2532              		.cfi_offset 14, -4
 2533 0002 87B0     		sub	sp, sp, #28
 2534              	.LCFI57:
 2535              		.cfi_def_cfa_offset 40
 2536 0004 0546     		mov	r5, r0
 928:Drivers/STM32F4xx_HAL_Driver/Src/stm32f4xx_ll_sdmmc.c ****   uint32_t errorstate = SDMMC_ERROR_NONE;
 2537              		.loc 1 928 3 is_stmt 1 view .LVU737
 929:Drivers/STM32F4xx_HAL_Driver/Src/stm32f4xx_ll_sdmmc.c ****   
 2538              		.loc 1 929 3 view .LVU738
 2539              	.LVL220:
 931:Drivers/STM32F4xx_HAL_Driver/Src/stm32f4xx_ll_sdmmc.c ****   sdmmc_cmdinit.CmdIndex         = SDMMC_CMD_APP_SD_SET_BUSWIDTH;
ARM GAS  /tmp/ccDCAHOp.s 			page 82


 2540              		.loc 1 931 3 view .LVU739
 931:Drivers/STM32F4xx_HAL_Driver/Src/stm32f4xx_ll_sdmmc.c ****   sdmmc_cmdinit.CmdIndex         = SDMMC_CMD_APP_SD_SET_BUSWIDTH;
 2541              		.loc 1 931 34 is_stmt 0 view .LVU740
 2542 0006 0191     		str	r1, [sp, #4]
 932:Drivers/STM32F4xx_HAL_Driver/Src/stm32f4xx_ll_sdmmc.c ****   sdmmc_cmdinit.Response         = SDIO_RESPONSE_SHORT;
 2543              		.loc 1 932 3 is_stmt 1 view .LVU741
 932:Drivers/STM32F4xx_HAL_Driver/Src/stm32f4xx_ll_sdmmc.c ****   sdmmc_cmdinit.Response         = SDIO_RESPONSE_SHORT;
 2544              		.loc 1 932 34 is_stmt 0 view .LVU742
 2545 0008 0624     		movs	r4, #6
 2546 000a 0294     		str	r4, [sp, #8]
 933:Drivers/STM32F4xx_HAL_Driver/Src/stm32f4xx_ll_sdmmc.c ****   sdmmc_cmdinit.WaitForInterrupt = SDIO_WAIT_NO;
 2547              		.loc 1 933 3 is_stmt 1 view .LVU743
 933:Drivers/STM32F4xx_HAL_Driver/Src/stm32f4xx_ll_sdmmc.c ****   sdmmc_cmdinit.WaitForInterrupt = SDIO_WAIT_NO;
 2548              		.loc 1 933 34 is_stmt 0 view .LVU744
 2549 000c 4023     		movs	r3, #64
 2550 000e 0393     		str	r3, [sp, #12]
 934:Drivers/STM32F4xx_HAL_Driver/Src/stm32f4xx_ll_sdmmc.c ****   sdmmc_cmdinit.CPSM             = SDIO_CPSM_ENABLE;
 2551              		.loc 1 934 3 is_stmt 1 view .LVU745
 934:Drivers/STM32F4xx_HAL_Driver/Src/stm32f4xx_ll_sdmmc.c ****   sdmmc_cmdinit.CPSM             = SDIO_CPSM_ENABLE;
 2552              		.loc 1 934 34 is_stmt 0 view .LVU746
 2553 0010 0023     		movs	r3, #0
 2554 0012 0493     		str	r3, [sp, #16]
 935:Drivers/STM32F4xx_HAL_Driver/Src/stm32f4xx_ll_sdmmc.c ****   SDIO_SendCommand(SDIOx, &sdmmc_cmdinit);
 2555              		.loc 1 935 3 is_stmt 1 view .LVU747
 935:Drivers/STM32F4xx_HAL_Driver/Src/stm32f4xx_ll_sdmmc.c ****   SDIO_SendCommand(SDIOx, &sdmmc_cmdinit);
 2556              		.loc 1 935 34 is_stmt 0 view .LVU748
 2557 0014 4FF48063 		mov	r3, #1024
 2558 0018 0593     		str	r3, [sp, #20]
 936:Drivers/STM32F4xx_HAL_Driver/Src/stm32f4xx_ll_sdmmc.c ****   
 2559              		.loc 1 936 3 is_stmt 1 view .LVU749
 2560 001a 01A9     		add	r1, sp, #4
 2561              	.LVL221:
 936:Drivers/STM32F4xx_HAL_Driver/Src/stm32f4xx_ll_sdmmc.c ****   
 2562              		.loc 1 936 3 is_stmt 0 view .LVU750
 2563 001c FFF7FEFF 		bl	SDIO_SendCommand
 2564              	.LVL222:
 939:Drivers/STM32F4xx_HAL_Driver/Src/stm32f4xx_ll_sdmmc.c **** 
 2565              		.loc 1 939 3 is_stmt 1 view .LVU751
 939:Drivers/STM32F4xx_HAL_Driver/Src/stm32f4xx_ll_sdmmc.c **** 
 2566              		.loc 1 939 16 is_stmt 0 view .LVU752
 2567 0020 41F28832 		movw	r2, #5000
 2568 0024 2146     		mov	r1, r4
 2569 0026 2846     		mov	r0, r5
 2570 0028 FFF7FEFF 		bl	SDMMC_GetCmdResp1
 2571              	.LVL223:
 941:Drivers/STM32F4xx_HAL_Driver/Src/stm32f4xx_ll_sdmmc.c **** }
 2572              		.loc 1 941 3 is_stmt 1 view .LVU753
 942:Drivers/STM32F4xx_HAL_Driver/Src/stm32f4xx_ll_sdmmc.c **** 
 2573              		.loc 1 942 1 is_stmt 0 view .LVU754
 2574 002c 07B0     		add	sp, sp, #28
 2575              	.LCFI58:
 2576              		.cfi_def_cfa_offset 12
 2577              		@ sp needed
 2578 002e 30BD     		pop	{r4, r5, pc}
 942:Drivers/STM32F4xx_HAL_Driver/Src/stm32f4xx_ll_sdmmc.c **** 
 2579              		.loc 1 942 1 view .LVU755
 2580              		.cfi_endproc
ARM GAS  /tmp/ccDCAHOp.s 			page 83


 2581              	.LFE155:
 2583              		.section	.text.SDMMC_CmdSendSCR,"ax",%progbits
 2584              		.align	1
 2585              		.global	SDMMC_CmdSendSCR
 2586              		.syntax unified
 2587              		.thumb
 2588              		.thumb_func
 2589              		.fpu fpv4-sp-d16
 2591              	SDMMC_CmdSendSCR:
 2592              	.LVL224:
 2593              	.LFB156:
 950:Drivers/STM32F4xx_HAL_Driver/Src/stm32f4xx_ll_sdmmc.c ****   SDIO_CmdInitTypeDef  sdmmc_cmdinit;
 2594              		.loc 1 950 1 is_stmt 1 view -0
 2595              		.cfi_startproc
 2596              		@ args = 0, pretend = 0, frame = 24
 2597              		@ frame_needed = 0, uses_anonymous_args = 0
 950:Drivers/STM32F4xx_HAL_Driver/Src/stm32f4xx_ll_sdmmc.c ****   SDIO_CmdInitTypeDef  sdmmc_cmdinit;
 2598              		.loc 1 950 1 is_stmt 0 view .LVU757
 2599 0000 30B5     		push	{r4, r5, lr}
 2600              	.LCFI59:
 2601              		.cfi_def_cfa_offset 12
 2602              		.cfi_offset 4, -12
 2603              		.cfi_offset 5, -8
 2604              		.cfi_offset 14, -4
 2605 0002 87B0     		sub	sp, sp, #28
 2606              	.LCFI60:
 2607              		.cfi_def_cfa_offset 40
 2608 0004 0546     		mov	r5, r0
 951:Drivers/STM32F4xx_HAL_Driver/Src/stm32f4xx_ll_sdmmc.c ****   uint32_t errorstate = SDMMC_ERROR_NONE;
 2609              		.loc 1 951 3 is_stmt 1 view .LVU758
 952:Drivers/STM32F4xx_HAL_Driver/Src/stm32f4xx_ll_sdmmc.c ****   
 2610              		.loc 1 952 3 view .LVU759
 2611              	.LVL225:
 955:Drivers/STM32F4xx_HAL_Driver/Src/stm32f4xx_ll_sdmmc.c ****   sdmmc_cmdinit.CmdIndex         = SDMMC_CMD_SD_APP_SEND_SCR;
 2612              		.loc 1 955 3 view .LVU760
 955:Drivers/STM32F4xx_HAL_Driver/Src/stm32f4xx_ll_sdmmc.c ****   sdmmc_cmdinit.CmdIndex         = SDMMC_CMD_SD_APP_SEND_SCR;
 2613              		.loc 1 955 34 is_stmt 0 view .LVU761
 2614 0006 0023     		movs	r3, #0
 2615 0008 0193     		str	r3, [sp, #4]
 956:Drivers/STM32F4xx_HAL_Driver/Src/stm32f4xx_ll_sdmmc.c ****   sdmmc_cmdinit.Response         = SDIO_RESPONSE_SHORT;
 2616              		.loc 1 956 3 is_stmt 1 view .LVU762
 956:Drivers/STM32F4xx_HAL_Driver/Src/stm32f4xx_ll_sdmmc.c ****   sdmmc_cmdinit.Response         = SDIO_RESPONSE_SHORT;
 2617              		.loc 1 956 34 is_stmt 0 view .LVU763
 2618 000a 3324     		movs	r4, #51
 2619 000c 0294     		str	r4, [sp, #8]
 957:Drivers/STM32F4xx_HAL_Driver/Src/stm32f4xx_ll_sdmmc.c ****   sdmmc_cmdinit.WaitForInterrupt = SDIO_WAIT_NO;
 2620              		.loc 1 957 3 is_stmt 1 view .LVU764
 957:Drivers/STM32F4xx_HAL_Driver/Src/stm32f4xx_ll_sdmmc.c ****   sdmmc_cmdinit.WaitForInterrupt = SDIO_WAIT_NO;
 2621              		.loc 1 957 34 is_stmt 0 view .LVU765
 2622 000e 4022     		movs	r2, #64
 2623 0010 0392     		str	r2, [sp, #12]
 958:Drivers/STM32F4xx_HAL_Driver/Src/stm32f4xx_ll_sdmmc.c ****   sdmmc_cmdinit.CPSM             = SDIO_CPSM_ENABLE;
 2624              		.loc 1 958 3 is_stmt 1 view .LVU766
 958:Drivers/STM32F4xx_HAL_Driver/Src/stm32f4xx_ll_sdmmc.c ****   sdmmc_cmdinit.CPSM             = SDIO_CPSM_ENABLE;
 2625              		.loc 1 958 34 is_stmt 0 view .LVU767
 2626 0012 0493     		str	r3, [sp, #16]
 959:Drivers/STM32F4xx_HAL_Driver/Src/stm32f4xx_ll_sdmmc.c ****   SDIO_SendCommand(SDIOx, &sdmmc_cmdinit);
ARM GAS  /tmp/ccDCAHOp.s 			page 84


 2627              		.loc 1 959 3 is_stmt 1 view .LVU768
 959:Drivers/STM32F4xx_HAL_Driver/Src/stm32f4xx_ll_sdmmc.c ****   SDIO_SendCommand(SDIOx, &sdmmc_cmdinit);
 2628              		.loc 1 959 34 is_stmt 0 view .LVU769
 2629 0014 4FF48063 		mov	r3, #1024
 2630 0018 0593     		str	r3, [sp, #20]
 960:Drivers/STM32F4xx_HAL_Driver/Src/stm32f4xx_ll_sdmmc.c ****   
 2631              		.loc 1 960 3 is_stmt 1 view .LVU770
 2632 001a 01A9     		add	r1, sp, #4
 2633 001c FFF7FEFF 		bl	SDIO_SendCommand
 2634              	.LVL226:
 963:Drivers/STM32F4xx_HAL_Driver/Src/stm32f4xx_ll_sdmmc.c **** 
 2635              		.loc 1 963 3 view .LVU771
 963:Drivers/STM32F4xx_HAL_Driver/Src/stm32f4xx_ll_sdmmc.c **** 
 2636              		.loc 1 963 16 is_stmt 0 view .LVU772
 2637 0020 41F28832 		movw	r2, #5000
 2638 0024 2146     		mov	r1, r4
 2639 0026 2846     		mov	r0, r5
 2640 0028 FFF7FEFF 		bl	SDMMC_GetCmdResp1
 2641              	.LVL227:
 965:Drivers/STM32F4xx_HAL_Driver/Src/stm32f4xx_ll_sdmmc.c **** }
 2642              		.loc 1 965 3 is_stmt 1 view .LVU773
 966:Drivers/STM32F4xx_HAL_Driver/Src/stm32f4xx_ll_sdmmc.c **** 
 2643              		.loc 1 966 1 is_stmt 0 view .LVU774
 2644 002c 07B0     		add	sp, sp, #28
 2645              	.LCFI61:
 2646              		.cfi_def_cfa_offset 12
 2647              		@ sp needed
 2648 002e 30BD     		pop	{r4, r5, pc}
 966:Drivers/STM32F4xx_HAL_Driver/Src/stm32f4xx_ll_sdmmc.c **** 
 2649              		.loc 1 966 1 view .LVU775
 2650              		.cfi_endproc
 2651              	.LFE156:
 2653              		.section	.text.SDMMC_CmdSendCID,"ax",%progbits
 2654              		.align	1
 2655              		.global	SDMMC_CmdSendCID
 2656              		.syntax unified
 2657              		.thumb
 2658              		.thumb_func
 2659              		.fpu fpv4-sp-d16
 2661              	SDMMC_CmdSendCID:
 2662              	.LVL228:
 2663              	.LFB157:
 974:Drivers/STM32F4xx_HAL_Driver/Src/stm32f4xx_ll_sdmmc.c ****   SDIO_CmdInitTypeDef  sdmmc_cmdinit;
 2664              		.loc 1 974 1 is_stmt 1 view -0
 2665              		.cfi_startproc
 2666              		@ args = 0, pretend = 0, frame = 24
 2667              		@ frame_needed = 0, uses_anonymous_args = 0
 974:Drivers/STM32F4xx_HAL_Driver/Src/stm32f4xx_ll_sdmmc.c ****   SDIO_CmdInitTypeDef  sdmmc_cmdinit;
 2668              		.loc 1 974 1 is_stmt 0 view .LVU777
 2669 0000 10B5     		push	{r4, lr}
 2670              	.LCFI62:
 2671              		.cfi_def_cfa_offset 8
 2672              		.cfi_offset 4, -8
 2673              		.cfi_offset 14, -4
 2674 0002 86B0     		sub	sp, sp, #24
 2675              	.LCFI63:
 2676              		.cfi_def_cfa_offset 32
ARM GAS  /tmp/ccDCAHOp.s 			page 85


 2677 0004 0446     		mov	r4, r0
 975:Drivers/STM32F4xx_HAL_Driver/Src/stm32f4xx_ll_sdmmc.c ****   uint32_t errorstate = SDMMC_ERROR_NONE;
 2678              		.loc 1 975 3 is_stmt 1 view .LVU778
 976:Drivers/STM32F4xx_HAL_Driver/Src/stm32f4xx_ll_sdmmc.c ****   
 2679              		.loc 1 976 3 view .LVU779
 2680              	.LVL229:
 979:Drivers/STM32F4xx_HAL_Driver/Src/stm32f4xx_ll_sdmmc.c ****   sdmmc_cmdinit.CmdIndex         = SDMMC_CMD_ALL_SEND_CID;
 2681              		.loc 1 979 3 view .LVU780
 979:Drivers/STM32F4xx_HAL_Driver/Src/stm32f4xx_ll_sdmmc.c ****   sdmmc_cmdinit.CmdIndex         = SDMMC_CMD_ALL_SEND_CID;
 2682              		.loc 1 979 34 is_stmt 0 view .LVU781
 2683 0006 0023     		movs	r3, #0
 2684 0008 0193     		str	r3, [sp, #4]
 980:Drivers/STM32F4xx_HAL_Driver/Src/stm32f4xx_ll_sdmmc.c ****   sdmmc_cmdinit.Response         = SDIO_RESPONSE_LONG;
 2685              		.loc 1 980 3 is_stmt 1 view .LVU782
 980:Drivers/STM32F4xx_HAL_Driver/Src/stm32f4xx_ll_sdmmc.c ****   sdmmc_cmdinit.Response         = SDIO_RESPONSE_LONG;
 2686              		.loc 1 980 34 is_stmt 0 view .LVU783
 2687 000a 0222     		movs	r2, #2
 2688 000c 0292     		str	r2, [sp, #8]
 981:Drivers/STM32F4xx_HAL_Driver/Src/stm32f4xx_ll_sdmmc.c ****   sdmmc_cmdinit.WaitForInterrupt = SDIO_WAIT_NO;
 2689              		.loc 1 981 3 is_stmt 1 view .LVU784
 981:Drivers/STM32F4xx_HAL_Driver/Src/stm32f4xx_ll_sdmmc.c ****   sdmmc_cmdinit.WaitForInterrupt = SDIO_WAIT_NO;
 2690              		.loc 1 981 34 is_stmt 0 view .LVU785
 2691 000e C022     		movs	r2, #192
 2692 0010 0392     		str	r2, [sp, #12]
 982:Drivers/STM32F4xx_HAL_Driver/Src/stm32f4xx_ll_sdmmc.c ****   sdmmc_cmdinit.CPSM             = SDIO_CPSM_ENABLE;
 2693              		.loc 1 982 3 is_stmt 1 view .LVU786
 982:Drivers/STM32F4xx_HAL_Driver/Src/stm32f4xx_ll_sdmmc.c ****   sdmmc_cmdinit.CPSM             = SDIO_CPSM_ENABLE;
 2694              		.loc 1 982 34 is_stmt 0 view .LVU787
 2695 0012 0493     		str	r3, [sp, #16]
 983:Drivers/STM32F4xx_HAL_Driver/Src/stm32f4xx_ll_sdmmc.c ****   SDIO_SendCommand(SDIOx, &sdmmc_cmdinit);
 2696              		.loc 1 983 3 is_stmt 1 view .LVU788
 983:Drivers/STM32F4xx_HAL_Driver/Src/stm32f4xx_ll_sdmmc.c ****   SDIO_SendCommand(SDIOx, &sdmmc_cmdinit);
 2697              		.loc 1 983 34 is_stmt 0 view .LVU789
 2698 0014 4FF48063 		mov	r3, #1024
 2699 0018 0593     		str	r3, [sp, #20]
 984:Drivers/STM32F4xx_HAL_Driver/Src/stm32f4xx_ll_sdmmc.c ****   
 2700              		.loc 1 984 3 is_stmt 1 view .LVU790
 2701 001a 01A9     		add	r1, sp, #4
 2702 001c FFF7FEFF 		bl	SDIO_SendCommand
 2703              	.LVL230:
 987:Drivers/STM32F4xx_HAL_Driver/Src/stm32f4xx_ll_sdmmc.c **** 
 2704              		.loc 1 987 3 view .LVU791
 987:Drivers/STM32F4xx_HAL_Driver/Src/stm32f4xx_ll_sdmmc.c **** 
 2705              		.loc 1 987 16 is_stmt 0 view .LVU792
 2706 0020 2046     		mov	r0, r4
 2707 0022 FFF7FEFF 		bl	SDMMC_GetCmdResp2
 2708              	.LVL231:
 989:Drivers/STM32F4xx_HAL_Driver/Src/stm32f4xx_ll_sdmmc.c **** }
 2709              		.loc 1 989 3 is_stmt 1 view .LVU793
 990:Drivers/STM32F4xx_HAL_Driver/Src/stm32f4xx_ll_sdmmc.c **** 
 2710              		.loc 1 990 1 is_stmt 0 view .LVU794
 2711 0026 06B0     		add	sp, sp, #24
 2712              	.LCFI64:
 2713              		.cfi_def_cfa_offset 8
 2714              		@ sp needed
 2715 0028 10BD     		pop	{r4, pc}
 990:Drivers/STM32F4xx_HAL_Driver/Src/stm32f4xx_ll_sdmmc.c **** 
ARM GAS  /tmp/ccDCAHOp.s 			page 86


 2716              		.loc 1 990 1 view .LVU795
 2717              		.cfi_endproc
 2718              	.LFE157:
 2720              		.section	.text.SDMMC_CmdSendCSD,"ax",%progbits
 2721              		.align	1
 2722              		.global	SDMMC_CmdSendCSD
 2723              		.syntax unified
 2724              		.thumb
 2725              		.thumb_func
 2726              		.fpu fpv4-sp-d16
 2728              	SDMMC_CmdSendCSD:
 2729              	.LVL232:
 2730              	.LFB158:
 998:Drivers/STM32F4xx_HAL_Driver/Src/stm32f4xx_ll_sdmmc.c ****   SDIO_CmdInitTypeDef  sdmmc_cmdinit;
 2731              		.loc 1 998 1 is_stmt 1 view -0
 2732              		.cfi_startproc
 2733              		@ args = 0, pretend = 0, frame = 24
 2734              		@ frame_needed = 0, uses_anonymous_args = 0
 998:Drivers/STM32F4xx_HAL_Driver/Src/stm32f4xx_ll_sdmmc.c ****   SDIO_CmdInitTypeDef  sdmmc_cmdinit;
 2735              		.loc 1 998 1 is_stmt 0 view .LVU797
 2736 0000 10B5     		push	{r4, lr}
 2737              	.LCFI65:
 2738              		.cfi_def_cfa_offset 8
 2739              		.cfi_offset 4, -8
 2740              		.cfi_offset 14, -4
 2741 0002 86B0     		sub	sp, sp, #24
 2742              	.LCFI66:
 2743              		.cfi_def_cfa_offset 32
 2744 0004 0446     		mov	r4, r0
 999:Drivers/STM32F4xx_HAL_Driver/Src/stm32f4xx_ll_sdmmc.c ****   uint32_t errorstate = SDMMC_ERROR_NONE;
 2745              		.loc 1 999 3 is_stmt 1 view .LVU798
1000:Drivers/STM32F4xx_HAL_Driver/Src/stm32f4xx_ll_sdmmc.c ****   
 2746              		.loc 1 1000 3 view .LVU799
 2747              	.LVL233:
1003:Drivers/STM32F4xx_HAL_Driver/Src/stm32f4xx_ll_sdmmc.c ****   sdmmc_cmdinit.CmdIndex         = SDMMC_CMD_SEND_CSD;
 2748              		.loc 1 1003 3 view .LVU800
1003:Drivers/STM32F4xx_HAL_Driver/Src/stm32f4xx_ll_sdmmc.c ****   sdmmc_cmdinit.CmdIndex         = SDMMC_CMD_SEND_CSD;
 2749              		.loc 1 1003 34 is_stmt 0 view .LVU801
 2750 0006 0191     		str	r1, [sp, #4]
1004:Drivers/STM32F4xx_HAL_Driver/Src/stm32f4xx_ll_sdmmc.c ****   sdmmc_cmdinit.Response         = SDIO_RESPONSE_LONG;
 2751              		.loc 1 1004 3 is_stmt 1 view .LVU802
1004:Drivers/STM32F4xx_HAL_Driver/Src/stm32f4xx_ll_sdmmc.c ****   sdmmc_cmdinit.Response         = SDIO_RESPONSE_LONG;
 2752              		.loc 1 1004 34 is_stmt 0 view .LVU803
 2753 0008 0923     		movs	r3, #9
 2754 000a 0293     		str	r3, [sp, #8]
1005:Drivers/STM32F4xx_HAL_Driver/Src/stm32f4xx_ll_sdmmc.c ****   sdmmc_cmdinit.WaitForInterrupt = SDIO_WAIT_NO;
 2755              		.loc 1 1005 3 is_stmt 1 view .LVU804
1005:Drivers/STM32F4xx_HAL_Driver/Src/stm32f4xx_ll_sdmmc.c ****   sdmmc_cmdinit.WaitForInterrupt = SDIO_WAIT_NO;
 2756              		.loc 1 1005 34 is_stmt 0 view .LVU805
 2757 000c C023     		movs	r3, #192
 2758 000e 0393     		str	r3, [sp, #12]
1006:Drivers/STM32F4xx_HAL_Driver/Src/stm32f4xx_ll_sdmmc.c ****   sdmmc_cmdinit.CPSM             = SDIO_CPSM_ENABLE;
 2759              		.loc 1 1006 3 is_stmt 1 view .LVU806
1006:Drivers/STM32F4xx_HAL_Driver/Src/stm32f4xx_ll_sdmmc.c ****   sdmmc_cmdinit.CPSM             = SDIO_CPSM_ENABLE;
 2760              		.loc 1 1006 34 is_stmt 0 view .LVU807
 2761 0010 0023     		movs	r3, #0
 2762 0012 0493     		str	r3, [sp, #16]
ARM GAS  /tmp/ccDCAHOp.s 			page 87


1007:Drivers/STM32F4xx_HAL_Driver/Src/stm32f4xx_ll_sdmmc.c ****   SDIO_SendCommand(SDIOx, &sdmmc_cmdinit);
 2763              		.loc 1 1007 3 is_stmt 1 view .LVU808
1007:Drivers/STM32F4xx_HAL_Driver/Src/stm32f4xx_ll_sdmmc.c ****   SDIO_SendCommand(SDIOx, &sdmmc_cmdinit);
 2764              		.loc 1 1007 34 is_stmt 0 view .LVU809
 2765 0014 4FF48063 		mov	r3, #1024
 2766 0018 0593     		str	r3, [sp, #20]
1008:Drivers/STM32F4xx_HAL_Driver/Src/stm32f4xx_ll_sdmmc.c ****   
 2767              		.loc 1 1008 3 is_stmt 1 view .LVU810
 2768 001a 01A9     		add	r1, sp, #4
 2769              	.LVL234:
1008:Drivers/STM32F4xx_HAL_Driver/Src/stm32f4xx_ll_sdmmc.c ****   
 2770              		.loc 1 1008 3 is_stmt 0 view .LVU811
 2771 001c FFF7FEFF 		bl	SDIO_SendCommand
 2772              	.LVL235:
1011:Drivers/STM32F4xx_HAL_Driver/Src/stm32f4xx_ll_sdmmc.c **** 
 2773              		.loc 1 1011 3 is_stmt 1 view .LVU812
1011:Drivers/STM32F4xx_HAL_Driver/Src/stm32f4xx_ll_sdmmc.c **** 
 2774              		.loc 1 1011 16 is_stmt 0 view .LVU813
 2775 0020 2046     		mov	r0, r4
 2776 0022 FFF7FEFF 		bl	SDMMC_GetCmdResp2
 2777              	.LVL236:
1013:Drivers/STM32F4xx_HAL_Driver/Src/stm32f4xx_ll_sdmmc.c **** }
 2778              		.loc 1 1013 3 is_stmt 1 view .LVU814
1014:Drivers/STM32F4xx_HAL_Driver/Src/stm32f4xx_ll_sdmmc.c **** 
 2779              		.loc 1 1014 1 is_stmt 0 view .LVU815
 2780 0026 06B0     		add	sp, sp, #24
 2781              	.LCFI67:
 2782              		.cfi_def_cfa_offset 8
 2783              		@ sp needed
 2784 0028 10BD     		pop	{r4, pc}
1014:Drivers/STM32F4xx_HAL_Driver/Src/stm32f4xx_ll_sdmmc.c **** 
 2785              		.loc 1 1014 1 view .LVU816
 2786              		.cfi_endproc
 2787              	.LFE158:
 2789              		.section	.text.SDMMC_CmdSetRelAdd,"ax",%progbits
 2790              		.align	1
 2791              		.global	SDMMC_CmdSetRelAdd
 2792              		.syntax unified
 2793              		.thumb
 2794              		.thumb_func
 2795              		.fpu fpv4-sp-d16
 2797              	SDMMC_CmdSetRelAdd:
 2798              	.LVL237:
 2799              	.LFB159:
1022:Drivers/STM32F4xx_HAL_Driver/Src/stm32f4xx_ll_sdmmc.c ****   SDIO_CmdInitTypeDef  sdmmc_cmdinit;
 2800              		.loc 1 1022 1 is_stmt 1 view -0
 2801              		.cfi_startproc
 2802              		@ args = 0, pretend = 0, frame = 24
 2803              		@ frame_needed = 0, uses_anonymous_args = 0
1022:Drivers/STM32F4xx_HAL_Driver/Src/stm32f4xx_ll_sdmmc.c ****   SDIO_CmdInitTypeDef  sdmmc_cmdinit;
 2804              		.loc 1 1022 1 is_stmt 0 view .LVU818
 2805 0000 70B5     		push	{r4, r5, r6, lr}
 2806              	.LCFI68:
 2807              		.cfi_def_cfa_offset 16
 2808              		.cfi_offset 4, -16
 2809              		.cfi_offset 5, -12
 2810              		.cfi_offset 6, -8
ARM GAS  /tmp/ccDCAHOp.s 			page 88


 2811              		.cfi_offset 14, -4
 2812 0002 86B0     		sub	sp, sp, #24
 2813              	.LCFI69:
 2814              		.cfi_def_cfa_offset 40
 2815 0004 0546     		mov	r5, r0
 2816 0006 0E46     		mov	r6, r1
1023:Drivers/STM32F4xx_HAL_Driver/Src/stm32f4xx_ll_sdmmc.c ****   uint32_t errorstate = SDMMC_ERROR_NONE;
 2817              		.loc 1 1023 3 is_stmt 1 view .LVU819
1024:Drivers/STM32F4xx_HAL_Driver/Src/stm32f4xx_ll_sdmmc.c ****   
 2818              		.loc 1 1024 3 view .LVU820
 2819              	.LVL238:
1027:Drivers/STM32F4xx_HAL_Driver/Src/stm32f4xx_ll_sdmmc.c ****   sdmmc_cmdinit.CmdIndex         = SDMMC_CMD_SET_REL_ADDR;
 2820              		.loc 1 1027 3 view .LVU821
1027:Drivers/STM32F4xx_HAL_Driver/Src/stm32f4xx_ll_sdmmc.c ****   sdmmc_cmdinit.CmdIndex         = SDMMC_CMD_SET_REL_ADDR;
 2821              		.loc 1 1027 34 is_stmt 0 view .LVU822
 2822 0008 0023     		movs	r3, #0
 2823 000a 0193     		str	r3, [sp, #4]
1028:Drivers/STM32F4xx_HAL_Driver/Src/stm32f4xx_ll_sdmmc.c ****   sdmmc_cmdinit.Response         = SDIO_RESPONSE_SHORT;
 2824              		.loc 1 1028 3 is_stmt 1 view .LVU823
1028:Drivers/STM32F4xx_HAL_Driver/Src/stm32f4xx_ll_sdmmc.c ****   sdmmc_cmdinit.Response         = SDIO_RESPONSE_SHORT;
 2825              		.loc 1 1028 34 is_stmt 0 view .LVU824
 2826 000c 0324     		movs	r4, #3
 2827 000e 0294     		str	r4, [sp, #8]
1029:Drivers/STM32F4xx_HAL_Driver/Src/stm32f4xx_ll_sdmmc.c ****   sdmmc_cmdinit.WaitForInterrupt = SDIO_WAIT_NO;
 2828              		.loc 1 1029 3 is_stmt 1 view .LVU825
1029:Drivers/STM32F4xx_HAL_Driver/Src/stm32f4xx_ll_sdmmc.c ****   sdmmc_cmdinit.WaitForInterrupt = SDIO_WAIT_NO;
 2829              		.loc 1 1029 34 is_stmt 0 view .LVU826
 2830 0010 4022     		movs	r2, #64
 2831 0012 0392     		str	r2, [sp, #12]
1030:Drivers/STM32F4xx_HAL_Driver/Src/stm32f4xx_ll_sdmmc.c ****   sdmmc_cmdinit.CPSM             = SDIO_CPSM_ENABLE;
 2832              		.loc 1 1030 3 is_stmt 1 view .LVU827
1030:Drivers/STM32F4xx_HAL_Driver/Src/stm32f4xx_ll_sdmmc.c ****   sdmmc_cmdinit.CPSM             = SDIO_CPSM_ENABLE;
 2833              		.loc 1 1030 34 is_stmt 0 view .LVU828
 2834 0014 0493     		str	r3, [sp, #16]
1031:Drivers/STM32F4xx_HAL_Driver/Src/stm32f4xx_ll_sdmmc.c ****   SDIO_SendCommand(SDIOx, &sdmmc_cmdinit);
 2835              		.loc 1 1031 3 is_stmt 1 view .LVU829
1031:Drivers/STM32F4xx_HAL_Driver/Src/stm32f4xx_ll_sdmmc.c ****   SDIO_SendCommand(SDIOx, &sdmmc_cmdinit);
 2836              		.loc 1 1031 34 is_stmt 0 view .LVU830
 2837 0016 4FF48063 		mov	r3, #1024
 2838 001a 0593     		str	r3, [sp, #20]
1032:Drivers/STM32F4xx_HAL_Driver/Src/stm32f4xx_ll_sdmmc.c ****   
 2839              		.loc 1 1032 3 is_stmt 1 view .LVU831
 2840 001c 01A9     		add	r1, sp, #4
 2841              	.LVL239:
1032:Drivers/STM32F4xx_HAL_Driver/Src/stm32f4xx_ll_sdmmc.c ****   
 2842              		.loc 1 1032 3 is_stmt 0 view .LVU832
 2843 001e FFF7FEFF 		bl	SDIO_SendCommand
 2844              	.LVL240:
1035:Drivers/STM32F4xx_HAL_Driver/Src/stm32f4xx_ll_sdmmc.c **** 
 2845              		.loc 1 1035 3 is_stmt 1 view .LVU833
1035:Drivers/STM32F4xx_HAL_Driver/Src/stm32f4xx_ll_sdmmc.c **** 
 2846              		.loc 1 1035 16 is_stmt 0 view .LVU834
 2847 0022 3246     		mov	r2, r6
 2848 0024 2146     		mov	r1, r4
 2849 0026 2846     		mov	r0, r5
 2850 0028 FFF7FEFF 		bl	SDMMC_GetCmdResp6
 2851              	.LVL241:
ARM GAS  /tmp/ccDCAHOp.s 			page 89


1037:Drivers/STM32F4xx_HAL_Driver/Src/stm32f4xx_ll_sdmmc.c **** }
 2852              		.loc 1 1037 3 is_stmt 1 view .LVU835
1038:Drivers/STM32F4xx_HAL_Driver/Src/stm32f4xx_ll_sdmmc.c **** 
 2853              		.loc 1 1038 1 is_stmt 0 view .LVU836
 2854 002c 06B0     		add	sp, sp, #24
 2855              	.LCFI70:
 2856              		.cfi_def_cfa_offset 16
 2857              		@ sp needed
 2858 002e 70BD     		pop	{r4, r5, r6, pc}
1038:Drivers/STM32F4xx_HAL_Driver/Src/stm32f4xx_ll_sdmmc.c **** 
 2859              		.loc 1 1038 1 view .LVU837
 2860              		.cfi_endproc
 2861              	.LFE159:
 2863              		.section	.text.SDMMC_CmdSendStatus,"ax",%progbits
 2864              		.align	1
 2865              		.global	SDMMC_CmdSendStatus
 2866              		.syntax unified
 2867              		.thumb
 2868              		.thumb_func
 2869              		.fpu fpv4-sp-d16
 2871              	SDMMC_CmdSendStatus:
 2872              	.LVL242:
 2873              	.LFB160:
1046:Drivers/STM32F4xx_HAL_Driver/Src/stm32f4xx_ll_sdmmc.c ****   SDIO_CmdInitTypeDef  sdmmc_cmdinit;
 2874              		.loc 1 1046 1 is_stmt 1 view -0
 2875              		.cfi_startproc
 2876              		@ args = 0, pretend = 0, frame = 24
 2877              		@ frame_needed = 0, uses_anonymous_args = 0
1046:Drivers/STM32F4xx_HAL_Driver/Src/stm32f4xx_ll_sdmmc.c ****   SDIO_CmdInitTypeDef  sdmmc_cmdinit;
 2878              		.loc 1 1046 1 is_stmt 0 view .LVU839
 2879 0000 30B5     		push	{r4, r5, lr}
 2880              	.LCFI71:
 2881              		.cfi_def_cfa_offset 12
 2882              		.cfi_offset 4, -12
 2883              		.cfi_offset 5, -8
 2884              		.cfi_offset 14, -4
 2885 0002 87B0     		sub	sp, sp, #28
 2886              	.LCFI72:
 2887              		.cfi_def_cfa_offset 40
 2888 0004 0546     		mov	r5, r0
1047:Drivers/STM32F4xx_HAL_Driver/Src/stm32f4xx_ll_sdmmc.c ****   uint32_t errorstate = SDMMC_ERROR_NONE;
 2889              		.loc 1 1047 3 is_stmt 1 view .LVU840
1048:Drivers/STM32F4xx_HAL_Driver/Src/stm32f4xx_ll_sdmmc.c ****   
 2890              		.loc 1 1048 3 view .LVU841
 2891              	.LVL243:
1050:Drivers/STM32F4xx_HAL_Driver/Src/stm32f4xx_ll_sdmmc.c ****   sdmmc_cmdinit.CmdIndex         = SDMMC_CMD_SEND_STATUS;
 2892              		.loc 1 1050 3 view .LVU842
1050:Drivers/STM32F4xx_HAL_Driver/Src/stm32f4xx_ll_sdmmc.c ****   sdmmc_cmdinit.CmdIndex         = SDMMC_CMD_SEND_STATUS;
 2893              		.loc 1 1050 34 is_stmt 0 view .LVU843
 2894 0006 0191     		str	r1, [sp, #4]
1051:Drivers/STM32F4xx_HAL_Driver/Src/stm32f4xx_ll_sdmmc.c ****   sdmmc_cmdinit.Response         = SDIO_RESPONSE_SHORT;
 2895              		.loc 1 1051 3 is_stmt 1 view .LVU844
1051:Drivers/STM32F4xx_HAL_Driver/Src/stm32f4xx_ll_sdmmc.c ****   sdmmc_cmdinit.Response         = SDIO_RESPONSE_SHORT;
 2896              		.loc 1 1051 34 is_stmt 0 view .LVU845
 2897 0008 0D24     		movs	r4, #13
 2898 000a 0294     		str	r4, [sp, #8]
1052:Drivers/STM32F4xx_HAL_Driver/Src/stm32f4xx_ll_sdmmc.c ****   sdmmc_cmdinit.WaitForInterrupt = SDIO_WAIT_NO;
ARM GAS  /tmp/ccDCAHOp.s 			page 90


 2899              		.loc 1 1052 3 is_stmt 1 view .LVU846
1052:Drivers/STM32F4xx_HAL_Driver/Src/stm32f4xx_ll_sdmmc.c ****   sdmmc_cmdinit.WaitForInterrupt = SDIO_WAIT_NO;
 2900              		.loc 1 1052 34 is_stmt 0 view .LVU847
 2901 000c 4023     		movs	r3, #64
 2902 000e 0393     		str	r3, [sp, #12]
1053:Drivers/STM32F4xx_HAL_Driver/Src/stm32f4xx_ll_sdmmc.c ****   sdmmc_cmdinit.CPSM             = SDIO_CPSM_ENABLE;
 2903              		.loc 1 1053 3 is_stmt 1 view .LVU848
1053:Drivers/STM32F4xx_HAL_Driver/Src/stm32f4xx_ll_sdmmc.c ****   sdmmc_cmdinit.CPSM             = SDIO_CPSM_ENABLE;
 2904              		.loc 1 1053 34 is_stmt 0 view .LVU849
 2905 0010 0023     		movs	r3, #0
 2906 0012 0493     		str	r3, [sp, #16]
1054:Drivers/STM32F4xx_HAL_Driver/Src/stm32f4xx_ll_sdmmc.c ****   SDIO_SendCommand(SDIOx, &sdmmc_cmdinit);
 2907              		.loc 1 1054 3 is_stmt 1 view .LVU850
1054:Drivers/STM32F4xx_HAL_Driver/Src/stm32f4xx_ll_sdmmc.c ****   SDIO_SendCommand(SDIOx, &sdmmc_cmdinit);
 2908              		.loc 1 1054 34 is_stmt 0 view .LVU851
 2909 0014 4FF48063 		mov	r3, #1024
 2910 0018 0593     		str	r3, [sp, #20]
1055:Drivers/STM32F4xx_HAL_Driver/Src/stm32f4xx_ll_sdmmc.c ****   
 2911              		.loc 1 1055 3 is_stmt 1 view .LVU852
 2912 001a 01A9     		add	r1, sp, #4
 2913              	.LVL244:
1055:Drivers/STM32F4xx_HAL_Driver/Src/stm32f4xx_ll_sdmmc.c ****   
 2914              		.loc 1 1055 3 is_stmt 0 view .LVU853
 2915 001c FFF7FEFF 		bl	SDIO_SendCommand
 2916              	.LVL245:
1058:Drivers/STM32F4xx_HAL_Driver/Src/stm32f4xx_ll_sdmmc.c **** 
 2917              		.loc 1 1058 3 is_stmt 1 view .LVU854
1058:Drivers/STM32F4xx_HAL_Driver/Src/stm32f4xx_ll_sdmmc.c **** 
 2918              		.loc 1 1058 16 is_stmt 0 view .LVU855
 2919 0020 41F28832 		movw	r2, #5000
 2920 0024 2146     		mov	r1, r4
 2921 0026 2846     		mov	r0, r5
 2922 0028 FFF7FEFF 		bl	SDMMC_GetCmdResp1
 2923              	.LVL246:
1060:Drivers/STM32F4xx_HAL_Driver/Src/stm32f4xx_ll_sdmmc.c **** }
 2924              		.loc 1 1060 3 is_stmt 1 view .LVU856
1061:Drivers/STM32F4xx_HAL_Driver/Src/stm32f4xx_ll_sdmmc.c **** 
 2925              		.loc 1 1061 1 is_stmt 0 view .LVU857
 2926 002c 07B0     		add	sp, sp, #28
 2927              	.LCFI73:
 2928              		.cfi_def_cfa_offset 12
 2929              		@ sp needed
 2930 002e 30BD     		pop	{r4, r5, pc}
1061:Drivers/STM32F4xx_HAL_Driver/Src/stm32f4xx_ll_sdmmc.c **** 
 2931              		.loc 1 1061 1 view .LVU858
 2932              		.cfi_endproc
 2933              	.LFE160:
 2935              		.section	.text.SDMMC_CmdStatusRegister,"ax",%progbits
 2936              		.align	1
 2937              		.global	SDMMC_CmdStatusRegister
 2938              		.syntax unified
 2939              		.thumb
 2940              		.thumb_func
 2941              		.fpu fpv4-sp-d16
 2943              	SDMMC_CmdStatusRegister:
 2944              	.LVL247:
 2945              	.LFB161:
ARM GAS  /tmp/ccDCAHOp.s 			page 91


1069:Drivers/STM32F4xx_HAL_Driver/Src/stm32f4xx_ll_sdmmc.c ****   SDIO_CmdInitTypeDef  sdmmc_cmdinit;
 2946              		.loc 1 1069 1 is_stmt 1 view -0
 2947              		.cfi_startproc
 2948              		@ args = 0, pretend = 0, frame = 24
 2949              		@ frame_needed = 0, uses_anonymous_args = 0
1069:Drivers/STM32F4xx_HAL_Driver/Src/stm32f4xx_ll_sdmmc.c ****   SDIO_CmdInitTypeDef  sdmmc_cmdinit;
 2950              		.loc 1 1069 1 is_stmt 0 view .LVU860
 2951 0000 30B5     		push	{r4, r5, lr}
 2952              	.LCFI74:
 2953              		.cfi_def_cfa_offset 12
 2954              		.cfi_offset 4, -12
 2955              		.cfi_offset 5, -8
 2956              		.cfi_offset 14, -4
 2957 0002 87B0     		sub	sp, sp, #28
 2958              	.LCFI75:
 2959              		.cfi_def_cfa_offset 40
 2960 0004 0546     		mov	r5, r0
1070:Drivers/STM32F4xx_HAL_Driver/Src/stm32f4xx_ll_sdmmc.c ****   uint32_t errorstate = SDMMC_ERROR_NONE;
 2961              		.loc 1 1070 3 is_stmt 1 view .LVU861
1071:Drivers/STM32F4xx_HAL_Driver/Src/stm32f4xx_ll_sdmmc.c ****   
 2962              		.loc 1 1071 3 view .LVU862
 2963              	.LVL248:
1073:Drivers/STM32F4xx_HAL_Driver/Src/stm32f4xx_ll_sdmmc.c ****   sdmmc_cmdinit.CmdIndex         = SDMMC_CMD_SD_APP_STATUS;
 2964              		.loc 1 1073 3 view .LVU863
1073:Drivers/STM32F4xx_HAL_Driver/Src/stm32f4xx_ll_sdmmc.c ****   sdmmc_cmdinit.CmdIndex         = SDMMC_CMD_SD_APP_STATUS;
 2965              		.loc 1 1073 34 is_stmt 0 view .LVU864
 2966 0006 0023     		movs	r3, #0
 2967 0008 0193     		str	r3, [sp, #4]
1074:Drivers/STM32F4xx_HAL_Driver/Src/stm32f4xx_ll_sdmmc.c ****   sdmmc_cmdinit.Response         = SDIO_RESPONSE_SHORT;
 2968              		.loc 1 1074 3 is_stmt 1 view .LVU865
1074:Drivers/STM32F4xx_HAL_Driver/Src/stm32f4xx_ll_sdmmc.c ****   sdmmc_cmdinit.Response         = SDIO_RESPONSE_SHORT;
 2969              		.loc 1 1074 34 is_stmt 0 view .LVU866
 2970 000a 0D24     		movs	r4, #13
 2971 000c 0294     		str	r4, [sp, #8]
1075:Drivers/STM32F4xx_HAL_Driver/Src/stm32f4xx_ll_sdmmc.c ****   sdmmc_cmdinit.WaitForInterrupt = SDIO_WAIT_NO;
 2972              		.loc 1 1075 3 is_stmt 1 view .LVU867
1075:Drivers/STM32F4xx_HAL_Driver/Src/stm32f4xx_ll_sdmmc.c ****   sdmmc_cmdinit.WaitForInterrupt = SDIO_WAIT_NO;
 2973              		.loc 1 1075 34 is_stmt 0 view .LVU868
 2974 000e 4022     		movs	r2, #64
 2975 0010 0392     		str	r2, [sp, #12]
1076:Drivers/STM32F4xx_HAL_Driver/Src/stm32f4xx_ll_sdmmc.c ****   sdmmc_cmdinit.CPSM             = SDIO_CPSM_ENABLE;
 2976              		.loc 1 1076 3 is_stmt 1 view .LVU869
1076:Drivers/STM32F4xx_HAL_Driver/Src/stm32f4xx_ll_sdmmc.c ****   sdmmc_cmdinit.CPSM             = SDIO_CPSM_ENABLE;
 2977              		.loc 1 1076 34 is_stmt 0 view .LVU870
 2978 0012 0493     		str	r3, [sp, #16]
1077:Drivers/STM32F4xx_HAL_Driver/Src/stm32f4xx_ll_sdmmc.c ****   SDIO_SendCommand(SDIOx, &sdmmc_cmdinit);
 2979              		.loc 1 1077 3 is_stmt 1 view .LVU871
1077:Drivers/STM32F4xx_HAL_Driver/Src/stm32f4xx_ll_sdmmc.c ****   SDIO_SendCommand(SDIOx, &sdmmc_cmdinit);
 2980              		.loc 1 1077 34 is_stmt 0 view .LVU872
 2981 0014 4FF48063 		mov	r3, #1024
 2982 0018 0593     		str	r3, [sp, #20]
1078:Drivers/STM32F4xx_HAL_Driver/Src/stm32f4xx_ll_sdmmc.c ****   
 2983              		.loc 1 1078 3 is_stmt 1 view .LVU873
 2984 001a 01A9     		add	r1, sp, #4
 2985 001c FFF7FEFF 		bl	SDIO_SendCommand
 2986              	.LVL249:
1081:Drivers/STM32F4xx_HAL_Driver/Src/stm32f4xx_ll_sdmmc.c **** 
ARM GAS  /tmp/ccDCAHOp.s 			page 92


 2987              		.loc 1 1081 3 view .LVU874
1081:Drivers/STM32F4xx_HAL_Driver/Src/stm32f4xx_ll_sdmmc.c **** 
 2988              		.loc 1 1081 16 is_stmt 0 view .LVU875
 2989 0020 41F28832 		movw	r2, #5000
 2990 0024 2146     		mov	r1, r4
 2991 0026 2846     		mov	r0, r5
 2992 0028 FFF7FEFF 		bl	SDMMC_GetCmdResp1
 2993              	.LVL250:
1083:Drivers/STM32F4xx_HAL_Driver/Src/stm32f4xx_ll_sdmmc.c **** }
 2994              		.loc 1 1083 3 is_stmt 1 view .LVU876
1084:Drivers/STM32F4xx_HAL_Driver/Src/stm32f4xx_ll_sdmmc.c **** 
 2995              		.loc 1 1084 1 is_stmt 0 view .LVU877
 2996 002c 07B0     		add	sp, sp, #28
 2997              	.LCFI76:
 2998              		.cfi_def_cfa_offset 12
 2999              		@ sp needed
 3000 002e 30BD     		pop	{r4, r5, pc}
1084:Drivers/STM32F4xx_HAL_Driver/Src/stm32f4xx_ll_sdmmc.c **** 
 3001              		.loc 1 1084 1 view .LVU878
 3002              		.cfi_endproc
 3003              	.LFE161:
 3005              		.section	.text.SDMMC_CmdOpCondition,"ax",%progbits
 3006              		.align	1
 3007              		.global	SDMMC_CmdOpCondition
 3008              		.syntax unified
 3009              		.thumb
 3010              		.thumb_func
 3011              		.fpu fpv4-sp-d16
 3013              	SDMMC_CmdOpCondition:
 3014              	.LVL251:
 3015              	.LFB162:
1094:Drivers/STM32F4xx_HAL_Driver/Src/stm32f4xx_ll_sdmmc.c ****   SDIO_CmdInitTypeDef  sdmmc_cmdinit;
 3016              		.loc 1 1094 1 is_stmt 1 view -0
 3017              		.cfi_startproc
 3018              		@ args = 0, pretend = 0, frame = 24
 3019              		@ frame_needed = 0, uses_anonymous_args = 0
1094:Drivers/STM32F4xx_HAL_Driver/Src/stm32f4xx_ll_sdmmc.c ****   SDIO_CmdInitTypeDef  sdmmc_cmdinit;
 3020              		.loc 1 1094 1 is_stmt 0 view .LVU880
 3021 0000 10B5     		push	{r4, lr}
 3022              	.LCFI77:
 3023              		.cfi_def_cfa_offset 8
 3024              		.cfi_offset 4, -8
 3025              		.cfi_offset 14, -4
 3026 0002 86B0     		sub	sp, sp, #24
 3027              	.LCFI78:
 3028              		.cfi_def_cfa_offset 32
 3029 0004 0446     		mov	r4, r0
1095:Drivers/STM32F4xx_HAL_Driver/Src/stm32f4xx_ll_sdmmc.c ****   uint32_t errorstate = SDMMC_ERROR_NONE;
 3030              		.loc 1 1095 3 is_stmt 1 view .LVU881
1096:Drivers/STM32F4xx_HAL_Driver/Src/stm32f4xx_ll_sdmmc.c ****   
 3031              		.loc 1 1096 3 view .LVU882
 3032              	.LVL252:
1098:Drivers/STM32F4xx_HAL_Driver/Src/stm32f4xx_ll_sdmmc.c ****   sdmmc_cmdinit.CmdIndex         = SDMMC_CMD_SEND_OP_COND;
 3033              		.loc 1 1098 3 view .LVU883
1098:Drivers/STM32F4xx_HAL_Driver/Src/stm32f4xx_ll_sdmmc.c ****   sdmmc_cmdinit.CmdIndex         = SDMMC_CMD_SEND_OP_COND;
 3034              		.loc 1 1098 34 is_stmt 0 view .LVU884
 3035 0006 0191     		str	r1, [sp, #4]
ARM GAS  /tmp/ccDCAHOp.s 			page 93


1099:Drivers/STM32F4xx_HAL_Driver/Src/stm32f4xx_ll_sdmmc.c ****   sdmmc_cmdinit.Response         = SDIO_RESPONSE_SHORT;
 3036              		.loc 1 1099 3 is_stmt 1 view .LVU885
1099:Drivers/STM32F4xx_HAL_Driver/Src/stm32f4xx_ll_sdmmc.c ****   sdmmc_cmdinit.Response         = SDIO_RESPONSE_SHORT;
 3037              		.loc 1 1099 34 is_stmt 0 view .LVU886
 3038 0008 0123     		movs	r3, #1
 3039 000a 0293     		str	r3, [sp, #8]
1100:Drivers/STM32F4xx_HAL_Driver/Src/stm32f4xx_ll_sdmmc.c ****   sdmmc_cmdinit.WaitForInterrupt = SDIO_WAIT_NO;
 3040              		.loc 1 1100 3 is_stmt 1 view .LVU887
1100:Drivers/STM32F4xx_HAL_Driver/Src/stm32f4xx_ll_sdmmc.c ****   sdmmc_cmdinit.WaitForInterrupt = SDIO_WAIT_NO;
 3041              		.loc 1 1100 34 is_stmt 0 view .LVU888
 3042 000c 4023     		movs	r3, #64
 3043 000e 0393     		str	r3, [sp, #12]
1101:Drivers/STM32F4xx_HAL_Driver/Src/stm32f4xx_ll_sdmmc.c ****   sdmmc_cmdinit.CPSM             = SDIO_CPSM_ENABLE;
 3044              		.loc 1 1101 3 is_stmt 1 view .LVU889
1101:Drivers/STM32F4xx_HAL_Driver/Src/stm32f4xx_ll_sdmmc.c ****   sdmmc_cmdinit.CPSM             = SDIO_CPSM_ENABLE;
 3045              		.loc 1 1101 34 is_stmt 0 view .LVU890
 3046 0010 0023     		movs	r3, #0
 3047 0012 0493     		str	r3, [sp, #16]
1102:Drivers/STM32F4xx_HAL_Driver/Src/stm32f4xx_ll_sdmmc.c ****   SDIO_SendCommand(SDIOx, &sdmmc_cmdinit);
 3048              		.loc 1 1102 3 is_stmt 1 view .LVU891
1102:Drivers/STM32F4xx_HAL_Driver/Src/stm32f4xx_ll_sdmmc.c ****   SDIO_SendCommand(SDIOx, &sdmmc_cmdinit);
 3049              		.loc 1 1102 34 is_stmt 0 view .LVU892
 3050 0014 4FF48063 		mov	r3, #1024
 3051 0018 0593     		str	r3, [sp, #20]
1103:Drivers/STM32F4xx_HAL_Driver/Src/stm32f4xx_ll_sdmmc.c ****   
 3052              		.loc 1 1103 3 is_stmt 1 view .LVU893
 3053 001a 01A9     		add	r1, sp, #4
 3054              	.LVL253:
1103:Drivers/STM32F4xx_HAL_Driver/Src/stm32f4xx_ll_sdmmc.c ****   
 3055              		.loc 1 1103 3 is_stmt 0 view .LVU894
 3056 001c FFF7FEFF 		bl	SDIO_SendCommand
 3057              	.LVL254:
1106:Drivers/STM32F4xx_HAL_Driver/Src/stm32f4xx_ll_sdmmc.c **** 
 3058              		.loc 1 1106 3 is_stmt 1 view .LVU895
1106:Drivers/STM32F4xx_HAL_Driver/Src/stm32f4xx_ll_sdmmc.c **** 
 3059              		.loc 1 1106 16 is_stmt 0 view .LVU896
 3060 0020 2046     		mov	r0, r4
 3061 0022 FFF7FEFF 		bl	SDMMC_GetCmdResp3
 3062              	.LVL255:
1108:Drivers/STM32F4xx_HAL_Driver/Src/stm32f4xx_ll_sdmmc.c **** }
 3063              		.loc 1 1108 3 is_stmt 1 view .LVU897
1109:Drivers/STM32F4xx_HAL_Driver/Src/stm32f4xx_ll_sdmmc.c **** 
 3064              		.loc 1 1109 1 is_stmt 0 view .LVU898
 3065 0026 06B0     		add	sp, sp, #24
 3066              	.LCFI79:
 3067              		.cfi_def_cfa_offset 8
 3068              		@ sp needed
 3069 0028 10BD     		pop	{r4, pc}
1109:Drivers/STM32F4xx_HAL_Driver/Src/stm32f4xx_ll_sdmmc.c **** 
 3070              		.loc 1 1109 1 view .LVU899
 3071              		.cfi_endproc
 3072              	.LFE162:
 3074              		.section	.text.SDMMC_CmdSwitch,"ax",%progbits
 3075              		.align	1
 3076              		.global	SDMMC_CmdSwitch
 3077              		.syntax unified
 3078              		.thumb
ARM GAS  /tmp/ccDCAHOp.s 			page 94


 3079              		.thumb_func
 3080              		.fpu fpv4-sp-d16
 3082              	SDMMC_CmdSwitch:
 3083              	.LVL256:
 3084              	.LFB163:
1118:Drivers/STM32F4xx_HAL_Driver/Src/stm32f4xx_ll_sdmmc.c ****   SDIO_CmdInitTypeDef  sdmmc_cmdinit;
 3085              		.loc 1 1118 1 is_stmt 1 view -0
 3086              		.cfi_startproc
 3087              		@ args = 0, pretend = 0, frame = 24
 3088              		@ frame_needed = 0, uses_anonymous_args = 0
1118:Drivers/STM32F4xx_HAL_Driver/Src/stm32f4xx_ll_sdmmc.c ****   SDIO_CmdInitTypeDef  sdmmc_cmdinit;
 3089              		.loc 1 1118 1 is_stmt 0 view .LVU901
 3090 0000 30B5     		push	{r4, r5, lr}
 3091              	.LCFI80:
 3092              		.cfi_def_cfa_offset 12
 3093              		.cfi_offset 4, -12
 3094              		.cfi_offset 5, -8
 3095              		.cfi_offset 14, -4
 3096 0002 87B0     		sub	sp, sp, #28
 3097              	.LCFI81:
 3098              		.cfi_def_cfa_offset 40
 3099 0004 0546     		mov	r5, r0
1119:Drivers/STM32F4xx_HAL_Driver/Src/stm32f4xx_ll_sdmmc.c ****   uint32_t errorstate = SDMMC_ERROR_NONE;
 3100              		.loc 1 1119 3 is_stmt 1 view .LVU902
1120:Drivers/STM32F4xx_HAL_Driver/Src/stm32f4xx_ll_sdmmc.c ****   
 3101              		.loc 1 1120 3 view .LVU903
 3102              	.LVL257:
1122:Drivers/STM32F4xx_HAL_Driver/Src/stm32f4xx_ll_sdmmc.c ****   sdmmc_cmdinit.CmdIndex         = SDMMC_CMD_HS_SWITCH;
 3103              		.loc 1 1122 3 view .LVU904
1122:Drivers/STM32F4xx_HAL_Driver/Src/stm32f4xx_ll_sdmmc.c ****   sdmmc_cmdinit.CmdIndex         = SDMMC_CMD_HS_SWITCH;
 3104              		.loc 1 1122 34 is_stmt 0 view .LVU905
 3105 0006 0191     		str	r1, [sp, #4]
1123:Drivers/STM32F4xx_HAL_Driver/Src/stm32f4xx_ll_sdmmc.c ****   sdmmc_cmdinit.Response         = SDIO_RESPONSE_SHORT;
 3106              		.loc 1 1123 3 is_stmt 1 view .LVU906
1123:Drivers/STM32F4xx_HAL_Driver/Src/stm32f4xx_ll_sdmmc.c ****   sdmmc_cmdinit.Response         = SDIO_RESPONSE_SHORT;
 3107              		.loc 1 1123 34 is_stmt 0 view .LVU907
 3108 0008 0624     		movs	r4, #6
 3109 000a 0294     		str	r4, [sp, #8]
1124:Drivers/STM32F4xx_HAL_Driver/Src/stm32f4xx_ll_sdmmc.c ****   sdmmc_cmdinit.WaitForInterrupt = SDIO_WAIT_NO;
 3110              		.loc 1 1124 3 is_stmt 1 view .LVU908
1124:Drivers/STM32F4xx_HAL_Driver/Src/stm32f4xx_ll_sdmmc.c ****   sdmmc_cmdinit.WaitForInterrupt = SDIO_WAIT_NO;
 3111              		.loc 1 1124 34 is_stmt 0 view .LVU909
 3112 000c 4023     		movs	r3, #64
 3113 000e 0393     		str	r3, [sp, #12]
1125:Drivers/STM32F4xx_HAL_Driver/Src/stm32f4xx_ll_sdmmc.c ****   sdmmc_cmdinit.CPSM             = SDIO_CPSM_ENABLE;
 3114              		.loc 1 1125 3 is_stmt 1 view .LVU910
1125:Drivers/STM32F4xx_HAL_Driver/Src/stm32f4xx_ll_sdmmc.c ****   sdmmc_cmdinit.CPSM             = SDIO_CPSM_ENABLE;
 3115              		.loc 1 1125 34 is_stmt 0 view .LVU911
 3116 0010 0023     		movs	r3, #0
 3117 0012 0493     		str	r3, [sp, #16]
1126:Drivers/STM32F4xx_HAL_Driver/Src/stm32f4xx_ll_sdmmc.c ****   SDIO_SendCommand(SDIOx, &sdmmc_cmdinit);
 3118              		.loc 1 1126 3 is_stmt 1 view .LVU912
1126:Drivers/STM32F4xx_HAL_Driver/Src/stm32f4xx_ll_sdmmc.c ****   SDIO_SendCommand(SDIOx, &sdmmc_cmdinit);
 3119              		.loc 1 1126 34 is_stmt 0 view .LVU913
 3120 0014 4FF48063 		mov	r3, #1024
 3121 0018 0593     		str	r3, [sp, #20]
1127:Drivers/STM32F4xx_HAL_Driver/Src/stm32f4xx_ll_sdmmc.c ****   
ARM GAS  /tmp/ccDCAHOp.s 			page 95


 3122              		.loc 1 1127 3 is_stmt 1 view .LVU914
 3123 001a 01A9     		add	r1, sp, #4
 3124              	.LVL258:
1127:Drivers/STM32F4xx_HAL_Driver/Src/stm32f4xx_ll_sdmmc.c ****   
 3125              		.loc 1 1127 3 is_stmt 0 view .LVU915
 3126 001c FFF7FEFF 		bl	SDIO_SendCommand
 3127              	.LVL259:
1130:Drivers/STM32F4xx_HAL_Driver/Src/stm32f4xx_ll_sdmmc.c **** 
 3128              		.loc 1 1130 3 is_stmt 1 view .LVU916
1130:Drivers/STM32F4xx_HAL_Driver/Src/stm32f4xx_ll_sdmmc.c **** 
 3129              		.loc 1 1130 16 is_stmt 0 view .LVU917
 3130 0020 41F28832 		movw	r2, #5000
 3131 0024 2146     		mov	r1, r4
 3132 0026 2846     		mov	r0, r5
 3133 0028 FFF7FEFF 		bl	SDMMC_GetCmdResp1
 3134              	.LVL260:
1132:Drivers/STM32F4xx_HAL_Driver/Src/stm32f4xx_ll_sdmmc.c **** }
 3135              		.loc 1 1132 3 is_stmt 1 view .LVU918
1133:Drivers/STM32F4xx_HAL_Driver/Src/stm32f4xx_ll_sdmmc.c **** 
 3136              		.loc 1 1133 1 is_stmt 0 view .LVU919
 3137 002c 07B0     		add	sp, sp, #28
 3138              	.LCFI82:
 3139              		.cfi_def_cfa_offset 12
 3140              		@ sp needed
 3141 002e 30BD     		pop	{r4, r5, pc}
1133:Drivers/STM32F4xx_HAL_Driver/Src/stm32f4xx_ll_sdmmc.c **** 
 3142              		.loc 1 1133 1 view .LVU920
 3143              		.cfi_endproc
 3144              	.LFE163:
 3146              		.text
 3147              	.Letext0:
 3148              		.file 2 "/usr/arm-none-eabi/include/machine/_default_types.h"
 3149              		.file 3 "/usr/arm-none-eabi/include/sys/_stdint.h"
 3150              		.file 4 "Drivers/CMSIS/Include/core_cm4.h"
 3151              		.file 5 "Drivers/CMSIS/Device/ST/STM32F4xx/Include/system_stm32f4xx.h"
 3152              		.file 6 "Drivers/CMSIS/Device/ST/STM32F4xx/Include/stm32f407xx.h"
 3153              		.file 7 "/usr/arm-none-eabi/include/sys/lock.h"
 3154              		.file 8 "/usr/arm-none-eabi/include/sys/_types.h"
 3155              		.file 9 "/usr/lib/gcc/arm-none-eabi/8.2.0/include/stddef.h"
 3156              		.file 10 "/usr/arm-none-eabi/include/sys/reent.h"
 3157              		.file 11 "Drivers/CMSIS/Device/ST/STM32F4xx/Include/stm32f4xx.h"
 3158              		.file 12 "Drivers/STM32F4xx_HAL_Driver/Inc/stm32f4xx_hal_def.h"
 3159              		.file 13 "Drivers/STM32F4xx_HAL_Driver/Inc/stm32f4xx_ll_sdmmc.h"
ARM GAS  /tmp/ccDCAHOp.s 			page 96


DEFINED SYMBOLS
                            *ABS*:0000000000000000 stm32f4xx_ll_sdmmc.c
     /tmp/ccDCAHOp.s:18     .text.SDMMC_GetCmdError:0000000000000000 $t
     /tmp/ccDCAHOp.s:25     .text.SDMMC_GetCmdError:0000000000000000 SDMMC_GetCmdError
     /tmp/ccDCAHOp.s:79     .text.SDMMC_GetCmdError:0000000000000034 $d
     /tmp/ccDCAHOp.s:85     .text.SDMMC_GetCmdResp2:0000000000000000 $t
     /tmp/ccDCAHOp.s:91     .text.SDMMC_GetCmdResp2:0000000000000000 SDMMC_GetCmdResp2
     /tmp/ccDCAHOp.s:178    .text.SDMMC_GetCmdResp2:0000000000000054 $d
     /tmp/ccDCAHOp.s:184    .text.SDMMC_GetCmdResp3:0000000000000000 $t
     /tmp/ccDCAHOp.s:190    .text.SDMMC_GetCmdResp3:0000000000000000 SDMMC_GetCmdResp3
     /tmp/ccDCAHOp.s:260    .text.SDMMC_GetCmdResp3:0000000000000044 $d
     /tmp/ccDCAHOp.s:266    .text.SDMMC_GetCmdResp7:0000000000000000 $t
     /tmp/ccDCAHOp.s:272    .text.SDMMC_GetCmdResp7:0000000000000000 SDMMC_GetCmdResp7
     /tmp/ccDCAHOp.s:354    .text.SDMMC_GetCmdResp7:000000000000004c $d
     /tmp/ccDCAHOp.s:360    .text.SDIO_Init:0000000000000000 $t
     /tmp/ccDCAHOp.s:367    .text.SDIO_Init:0000000000000000 SDIO_Init
     /tmp/ccDCAHOp.s:443    .text.SDIO_ReadFIFO:0000000000000000 $t
     /tmp/ccDCAHOp.s:450    .text.SDIO_ReadFIFO:0000000000000000 SDIO_ReadFIFO
     /tmp/ccDCAHOp.s:468    .text.SDIO_WriteFIFO:0000000000000000 $t
     /tmp/ccDCAHOp.s:475    .text.SDIO_WriteFIFO:0000000000000000 SDIO_WriteFIFO
     /tmp/ccDCAHOp.s:498    .text.SDIO_PowerState_ON:0000000000000000 $t
     /tmp/ccDCAHOp.s:505    .text.SDIO_PowerState_ON:0000000000000000 SDIO_PowerState_ON
     /tmp/ccDCAHOp.s:527    .text.SDIO_PowerState_OFF:0000000000000000 $t
     /tmp/ccDCAHOp.s:534    .text.SDIO_PowerState_OFF:0000000000000000 SDIO_PowerState_OFF
     /tmp/ccDCAHOp.s:556    .text.SDIO_GetPowerState:0000000000000000 $t
     /tmp/ccDCAHOp.s:563    .text.SDIO_GetPowerState:0000000000000000 SDIO_GetPowerState
     /tmp/ccDCAHOp.s:582    .text.SDIO_SendCommand:0000000000000000 $t
     /tmp/ccDCAHOp.s:589    .text.SDIO_SendCommand:0000000000000000 SDIO_SendCommand
     /tmp/ccDCAHOp.s:642    .text.SDIO_GetCommandResponse:0000000000000000 $t
     /tmp/ccDCAHOp.s:649    .text.SDIO_GetCommandResponse:0000000000000000 SDIO_GetCommandResponse
     /tmp/ccDCAHOp.s:668    .text.SDIO_GetResponse:0000000000000000 $t
     /tmp/ccDCAHOp.s:675    .text.SDIO_GetResponse:0000000000000000 SDIO_GetResponse
     /tmp/ccDCAHOp.s:717    .text.SDMMC_GetCmdResp1:0000000000000000 $t
     /tmp/ccDCAHOp.s:723    .text.SDMMC_GetCmdResp1:0000000000000000 SDMMC_GetCmdResp1
     /tmp/ccDCAHOp.s:1050   .text.SDMMC_GetCmdResp1:0000000000000148 $d
     /tmp/ccDCAHOp.s:1057   .text.SDMMC_GetCmdResp6:0000000000000000 $t
     /tmp/ccDCAHOp.s:1063   .text.SDMMC_GetCmdResp6:0000000000000000 SDMMC_GetCmdResp6
     /tmp/ccDCAHOp.s:1218   .text.SDMMC_GetCmdResp6:0000000000000098 $d
     /tmp/ccDCAHOp.s:1224   .text.SDIO_ConfigData:0000000000000000 $t
     /tmp/ccDCAHOp.s:1231   .text.SDIO_ConfigData:0000000000000000 SDIO_ConfigData
     /tmp/ccDCAHOp.s:1289   .text.SDIO_GetDataCounter:0000000000000000 $t
     /tmp/ccDCAHOp.s:1296   .text.SDIO_GetDataCounter:0000000000000000 SDIO_GetDataCounter
     /tmp/ccDCAHOp.s:1314   .text.SDIO_GetFIFOCount:0000000000000000 $t
     /tmp/ccDCAHOp.s:1321   .text.SDIO_GetFIFOCount:0000000000000000 SDIO_GetFIFOCount
     /tmp/ccDCAHOp.s:1339   .text.SDIO_SetSDMMCReadWaitMode:0000000000000000 $t
     /tmp/ccDCAHOp.s:1346   .text.SDIO_SetSDMMCReadWaitMode:0000000000000000 SDIO_SetSDMMCReadWaitMode
     /tmp/ccDCAHOp.s:1372   .text.SDMMC_CmdBlockLength:0000000000000000 $t
     /tmp/ccDCAHOp.s:1379   .text.SDMMC_CmdBlockLength:0000000000000000 SDMMC_CmdBlockLength
     /tmp/ccDCAHOp.s:1444   .text.SDMMC_CmdReadSingleBlock:0000000000000000 $t
     /tmp/ccDCAHOp.s:1451   .text.SDMMC_CmdReadSingleBlock:0000000000000000 SDMMC_CmdReadSingleBlock
     /tmp/ccDCAHOp.s:1516   .text.SDMMC_CmdReadMultiBlock:0000000000000000 $t
     /tmp/ccDCAHOp.s:1523   .text.SDMMC_CmdReadMultiBlock:0000000000000000 SDMMC_CmdReadMultiBlock
     /tmp/ccDCAHOp.s:1588   .text.SDMMC_CmdWriteSingleBlock:0000000000000000 $t
     /tmp/ccDCAHOp.s:1595   .text.SDMMC_CmdWriteSingleBlock:0000000000000000 SDMMC_CmdWriteSingleBlock
     /tmp/ccDCAHOp.s:1660   .text.SDMMC_CmdWriteMultiBlock:0000000000000000 $t
     /tmp/ccDCAHOp.s:1667   .text.SDMMC_CmdWriteMultiBlock:0000000000000000 SDMMC_CmdWriteMultiBlock
     /tmp/ccDCAHOp.s:1732   .text.SDMMC_CmdSDEraseStartAdd:0000000000000000 $t
ARM GAS  /tmp/ccDCAHOp.s 			page 97


     /tmp/ccDCAHOp.s:1739   .text.SDMMC_CmdSDEraseStartAdd:0000000000000000 SDMMC_CmdSDEraseStartAdd
     /tmp/ccDCAHOp.s:1804   .text.SDMMC_CmdSDEraseEndAdd:0000000000000000 $t
     /tmp/ccDCAHOp.s:1811   .text.SDMMC_CmdSDEraseEndAdd:0000000000000000 SDMMC_CmdSDEraseEndAdd
     /tmp/ccDCAHOp.s:1876   .text.SDMMC_CmdEraseStartAdd:0000000000000000 $t
     /tmp/ccDCAHOp.s:1883   .text.SDMMC_CmdEraseStartAdd:0000000000000000 SDMMC_CmdEraseStartAdd
     /tmp/ccDCAHOp.s:1948   .text.SDMMC_CmdEraseEndAdd:0000000000000000 $t
     /tmp/ccDCAHOp.s:1955   .text.SDMMC_CmdEraseEndAdd:0000000000000000 SDMMC_CmdEraseEndAdd
     /tmp/ccDCAHOp.s:2020   .text.SDMMC_CmdErase:0000000000000000 $t
     /tmp/ccDCAHOp.s:2027   .text.SDMMC_CmdErase:0000000000000000 SDMMC_CmdErase
     /tmp/ccDCAHOp.s:2090   .text.SDMMC_CmdStopTransfer:0000000000000000 $t
     /tmp/ccDCAHOp.s:2097   .text.SDMMC_CmdStopTransfer:0000000000000000 SDMMC_CmdStopTransfer
     /tmp/ccDCAHOp.s:2160   .text.SDMMC_CmdStopTransfer:0000000000000030 $d
     /tmp/ccDCAHOp.s:2165   .text.SDMMC_CmdSelDesel:0000000000000000 $t
     /tmp/ccDCAHOp.s:2172   .text.SDMMC_CmdSelDesel:0000000000000000 SDMMC_CmdSelDesel
     /tmp/ccDCAHOp.s:2235   .text.SDMMC_CmdGoIdleState:0000000000000000 $t
     /tmp/ccDCAHOp.s:2242   .text.SDMMC_CmdGoIdleState:0000000000000000 SDMMC_CmdGoIdleState
     /tmp/ccDCAHOp.s:2300   .text.SDMMC_CmdOperCond:0000000000000000 $t
     /tmp/ccDCAHOp.s:2307   .text.SDMMC_CmdOperCond:0000000000000000 SDMMC_CmdOperCond
     /tmp/ccDCAHOp.s:2368   .text.SDMMC_CmdAppCommand:0000000000000000 $t
     /tmp/ccDCAHOp.s:2375   .text.SDMMC_CmdAppCommand:0000000000000000 SDMMC_CmdAppCommand
     /tmp/ccDCAHOp.s:2440   .text.SDMMC_CmdAppOperCommand:0000000000000000 $t
     /tmp/ccDCAHOp.s:2447   .text.SDMMC_CmdAppOperCommand:0000000000000000 SDMMC_CmdAppOperCommand
     /tmp/ccDCAHOp.s:2512   .text.SDMMC_CmdBusWidth:0000000000000000 $t
     /tmp/ccDCAHOp.s:2519   .text.SDMMC_CmdBusWidth:0000000000000000 SDMMC_CmdBusWidth
     /tmp/ccDCAHOp.s:2584   .text.SDMMC_CmdSendSCR:0000000000000000 $t
     /tmp/ccDCAHOp.s:2591   .text.SDMMC_CmdSendSCR:0000000000000000 SDMMC_CmdSendSCR
     /tmp/ccDCAHOp.s:2654   .text.SDMMC_CmdSendCID:0000000000000000 $t
     /tmp/ccDCAHOp.s:2661   .text.SDMMC_CmdSendCID:0000000000000000 SDMMC_CmdSendCID
     /tmp/ccDCAHOp.s:2721   .text.SDMMC_CmdSendCSD:0000000000000000 $t
     /tmp/ccDCAHOp.s:2728   .text.SDMMC_CmdSendCSD:0000000000000000 SDMMC_CmdSendCSD
     /tmp/ccDCAHOp.s:2790   .text.SDMMC_CmdSetRelAdd:0000000000000000 $t
     /tmp/ccDCAHOp.s:2797   .text.SDMMC_CmdSetRelAdd:0000000000000000 SDMMC_CmdSetRelAdd
     /tmp/ccDCAHOp.s:2864   .text.SDMMC_CmdSendStatus:0000000000000000 $t
     /tmp/ccDCAHOp.s:2871   .text.SDMMC_CmdSendStatus:0000000000000000 SDMMC_CmdSendStatus
     /tmp/ccDCAHOp.s:2936   .text.SDMMC_CmdStatusRegister:0000000000000000 $t
     /tmp/ccDCAHOp.s:2943   .text.SDMMC_CmdStatusRegister:0000000000000000 SDMMC_CmdStatusRegister
     /tmp/ccDCAHOp.s:3006   .text.SDMMC_CmdOpCondition:0000000000000000 $t
     /tmp/ccDCAHOp.s:3013   .text.SDMMC_CmdOpCondition:0000000000000000 SDMMC_CmdOpCondition
     /tmp/ccDCAHOp.s:3075   .text.SDMMC_CmdSwitch:0000000000000000 $t
     /tmp/ccDCAHOp.s:3082   .text.SDMMC_CmdSwitch:0000000000000000 SDMMC_CmdSwitch

UNDEFINED SYMBOLS
SystemCoreClock
